
/home/binhkieudo/Workspace/tmp/tmp/ManyCore/framework/src/main/resources/bootROM/MTBoot//build/sdboot.elf:     file format elf64-littleriscv


Disassembly of section .text:

0000000000010000 <_prog_start>:

  .section .text.init
  .option norvc
  .globl _prog_start
_prog_start:
  li s2, 0x8  
   10000:	00800913          	li	s2,8
  csrw mie, s2
   10004:	30491073          	csrw	mie,s2
  // perform boot if hart_0, otherwise sleep
  li s1, 0
   10008:	00000493          	li	s1,0
  csrr s2, mhartid
   1000c:	f1402973          	csrr	s2,mhartid
  beq s1, s2, _boot
   10010:	05248e63          	beq	s1,s2,1006c <_boot>
  wfi
   10014:	10500073          	wfi
  // wake up from first sleep, clear flag
  csrw mie, zero
   10018:	30401073          	csrw	mie,zero
  csrr s0, mhartid
   1001c:	f1402473          	csrr	s0,mhartid

0000000000010020 <_hart1_clear>:
_hart1_clear:
  li s1, 1
   10020:	00100493          	li	s1,1
  bne s0, s1, _hart2_clear
   10024:	00941c63          	bne	s0,s1,1003c <_hart2_clear>
  // if hart 1, clear flag
  li t0, (CLINT_CTRL_ADDR + CLINT_MSIP1)
   10028:	020002b7          	lui	t0,0x2000
   1002c:	0042829b          	addiw	t0,t0,4 # 2000004 <dtb+0x1fef664>
  li t1, 0
   10030:	00000313          	li	t1,0
  amoswap.w t1, t1, (t0)
   10034:	0862a32f          	amoswap.w	t1,t1,(t0)
  j _exit
   10038:	0740006f          	j	100ac <_exit>

000000000001003c <_hart2_clear>:
_hart2_clear:
  li s1, 2
   1003c:	00200493          	li	s1,2
  bne s0, s1, _hart3_clear
   10040:	00941c63          	bne	s0,s1,10058 <_hart3_clear>
  // if hart 2, clear flag
  li t0, (CLINT_CTRL_ADDR + CLINT_MSIP2)
   10044:	020002b7          	lui	t0,0x2000
   10048:	0082829b          	addiw	t0,t0,8 # 2000008 <dtb+0x1fef668>
  li t1, 0
   1004c:	00000313          	li	t1,0
  amoswap.w t1, t1, (t0)
   10050:	0862a32f          	amoswap.w	t1,t1,(t0)
  j _exit
   10054:	0580006f          	j	100ac <_exit>

0000000000010058 <_hart3_clear>:
_hart3_clear:
  li t0, (CLINT_CTRL_ADDR + CLINT_MSIP3)
   10058:	020002b7          	lui	t0,0x2000
   1005c:	00c2829b          	addiw	t0,t0,12 # 200000c <dtb+0x1fef66c>
  li t1, 0
   10060:	00000313          	li	t1,0
  amoswap.w t1, t1, (t0)
   10064:	0862a32f          	amoswap.w	t1,t1,(t0)
  j _exit
   10068:	0440006f          	j	100ac <_exit>

000000000001006c <_boot>:
_boot: // only perform by hart0
  li sp, (CORE0_PRIVATE_MEM + 0xFF0)
   1006c:	40001137          	lui	sp,0x40001
   10070:	ff01011b          	addiw	sp,sp,-16 # 40000ff0 <dtb+0x3fff0650>
  csrr a0, mhartid
   10074:	f1402573          	csrr	a0,mhartid
  call main
   10078:	334000ef          	jal	ra,103ac <main>
  // After booting, wake other hart from first sleep
  li t0, (CLINT_CTRL_ADDR + CLINT_MSIP1)
   1007c:	020002b7          	lui	t0,0x2000
   10080:	0042829b          	addiw	t0,t0,4 # 2000004 <dtb+0x1fef664>
  li t1, 1
   10084:	00100313          	li	t1,1
  amoswap.w t1, t1, (t0)
   10088:	0862a32f          	amoswap.w	t1,t1,(t0)
  li t0, (CLINT_CTRL_ADDR + CLINT_MSIP2)
   1008c:	020002b7          	lui	t0,0x2000
   10090:	0082829b          	addiw	t0,t0,8 # 2000008 <dtb+0x1fef668>
  li t1, 1
   10094:	00100313          	li	t1,1
  amoswap.w t1, t1, (t0)
   10098:	0862a32f          	amoswap.w	t1,t1,(t0)
  li t0, (CLINT_CTRL_ADDR + CLINT_MSIP3)
   1009c:	020002b7          	lui	t0,0x2000
   100a0:	00c2829b          	addiw	t0,t0,12 # 200000c <dtb+0x1fef66c>
  li t1, 1
   100a4:	00100313          	li	t1,1
  amoswap.w t1, t1, (t0)
   100a8:	0862a32f          	amoswap.w	t1,t1,(t0)

00000000000100ac <_exit>:
_exit:
  li s2, 0x8
   100ac:	00800913          	li	s2,8
  csrw mie, s2
   100b0:	30491073          	csrw	mie,s2
  csrr a0, mhartid
   100b4:	f1402573          	csrr	a0,mhartid
  la a1, dtb // dtb address for next level bootloader
   100b8:	00001597          	auipc	a1,0x1
   100bc:	8e858593          	addi	a1,a1,-1816 # 109a0 <dtb>
  li s1, MEMORY_MEM_ADDR
   100c0:	0010049b          	addiw	s1,zero,1
   100c4:	01f49493          	slli	s1,s1,0x1f
  jr s1
   100c8:	00048067          	jr	s1
  wfi
   100cc:	10500073          	wfi

00000000000100d0 <_loopback>:
_loopback:
  j _prog_start
   100d0:	f31ff06f          	j	10000 <_prog_start>

00000000000100d4 <kputs>:
#include "kprintf.h"

static inline void _kputs(const char *s)
{
	char c;
	for (; (c = *s) != '\0'; s++)
   100d4:	00054683          	lbu	a3,0(a0)
   100d8:	02068063          	beqz	a3,100f8 <kputs+0x24>
{
	volatile uint32_t *tx = &REG32(uart, UART_REG_TXFIFO);
#ifdef __riscv_atomic
	int32_t r;
	do {
		__asm__ __volatile__ (
   100dc:	64000737          	lui	a4,0x64000
   100e0:	40d727af          	amoor.w	a5,a3,(a4)
   100e4:	0007879b          	sext.w	a5,a5
			"amoor.w %0, %2, %1\n"
			: "=r" (r), "+A" (*tx)
			: "r" (c));
	} while (r < 0);
   100e8:	fe07cce3          	bltz	a5,100e0 <kputs+0xc>
   100ec:	00154683          	lbu	a3,1(a0)
   100f0:	00150513          	addi	a0,a0,1
   100f4:	fe0696e3          	bnez	a3,100e0 <kputs+0xc>
		__asm__ __volatile__ (
   100f8:	64000737          	lui	a4,0x64000
   100fc:	00d00693          	li	a3,13
   10100:	40d727af          	amoor.w	a5,a3,(a4)
   10104:	0007879b          	sext.w	a5,a5
	} while (r < 0);
   10108:	fe07cce3          	bltz	a5,10100 <kputs+0x2c>
		__asm__ __volatile__ (
   1010c:	64000737          	lui	a4,0x64000
   10110:	00a00693          	li	a3,10
   10114:	40d727af          	amoor.w	a5,a3,(a4)
   10118:	0007879b          	sext.w	a5,a5
	} while (r < 0);
   1011c:	fe07cce3          	bltz	a5,10114 <kputs+0x40>
void kputs(const char *s)
{
	_kputs(s);
	kputc('\r');
	kputc('\n');
}
   10120:	00008067          	ret

0000000000010124 <kprintf>:

void kprintf(const char *fmt, ...)
{
   10124:	fb010113          	addi	sp,sp,-80

	va_start(vl, fmt);
	is_format = false;
	is_long = false;
	is_char = false;
	while ((c = *fmt++) != '\0') {
   10128:	00054303          	lbu	t1,0(a0)
{
   1012c:	02f13c23          	sd	a5,56(sp)
	va_start(vl, fmt);
   10130:	01810793          	addi	a5,sp,24
{
   10134:	00b13c23          	sd	a1,24(sp)
   10138:	02c13023          	sd	a2,32(sp)
   1013c:	02d13423          	sd	a3,40(sp)
   10140:	02e13823          	sd	a4,48(sp)
   10144:	05013023          	sd	a6,64(sp)
   10148:	05113423          	sd	a7,72(sp)
	va_start(vl, fmt);
   1014c:	00f13423          	sd	a5,8(sp)
	while ((c = *fmt++) != '\0') {
   10150:	08030263          	beqz	t1,101d4 <kprintf+0xb0>
   10154:	00150593          	addi	a1,a0,1
   10158:	00000e93          	li	t4,0
   1015c:	00000693          	li	a3,0
   10160:	00000713          	li	a4,0
				break;
			}
			is_format = false;
			is_long = false;
			is_char = false;
		} else if (c == '%') {
   10164:	02500e13          	li	t3,37
		__asm__ __volatile__ (
   10168:	64000637          	lui	a2,0x64000
			switch (c) {
   1016c:	01500893          	li	a7,21
   10170:	00000817          	auipc	a6,0x0
   10174:	73880813          	addi	a6,a6,1848 # 108a8 <main+0x4fc>
		if (is_format) {
   10178:	0e070663          	beqz	a4,10264 <kprintf+0x140>
			switch (c) {
   1017c:	f9d3031b          	addiw	t1,t1,-99
   10180:	0ff37313          	zext.b	t1,t1
   10184:	0268ec63          	bltu	a7,t1,101bc <kprintf+0x98>
   10188:	00231313          	slli	t1,t1,0x2
   1018c:	01030333          	add	t1,t1,a6
   10190:	00032783          	lw	a5,0(t1)
   10194:	010787b3          	add	a5,a5,a6
   10198:	00078067          	jr	a5
				kputc(va_arg(vl, int));
   1019c:	00813783          	ld	a5,8(sp)
   101a0:	64000737          	lui	a4,0x64000
   101a4:	0007c683          	lbu	a3,0(a5)
   101a8:	00878793          	addi	a5,a5,8
   101ac:	00f13423          	sd	a5,8(sp)
   101b0:	40d727af          	amoor.w	a5,a3,(a4)
   101b4:	0007879b          	sext.w	a5,a5
	} while (r < 0);
   101b8:	fe07cce3          	bltz	a5,101b0 <kprintf+0x8c>
			is_char = false;
   101bc:	00000e93          	li	t4,0
			is_long = false;
   101c0:	00000693          	li	a3,0
			is_format = false;
   101c4:	00000713          	li	a4,0
	while ((c = *fmt++) != '\0') {
   101c8:	0005c303          	lbu	t1,0(a1)
   101cc:	00158593          	addi	a1,a1,1
   101d0:	fa0314e3          	bnez	t1,10178 <kprintf+0x54>
		} else {
			kputc(c);
		}
	}
	va_end(vl);
}
   101d4:	05010113          	addi	sp,sp,80
   101d8:	00008067          	ret
					n = va_arg(vl, unsigned long);
   101dc:	00813783          	ld	a5,8(sp)
   101e0:	00878713          	addi	a4,a5,8
				if (is_long) {
   101e4:	0a068463          	beqz	a3,1028c <kprintf+0x168>
					n = va_arg(vl, unsigned long);
   101e8:	0007bf83          	ld	t6,0(a5)
   101ec:	00e13423          	sd	a4,8(sp)
					i = (sizeof(unsigned long) << 3) - 4;
   101f0:	03c00513          	li	a0,60
					kputc(d < 10 ? '0' + d : 'a' + d - 10);
   101f4:	00900f13          	li	t5,9
		__asm__ __volatile__ (
   101f8:	64000737          	lui	a4,0x64000
				for (; i >= 0; i -= 4) {
   101fc:	ffc00e93          	li	t4,-4
					d = (n >> i) & 0xF;
   10200:	00afd7b3          	srl	a5,t6,a0
					kputc(d < 10 ? '0' + d : 'a' + d - 10);
   10204:	00f7f313          	andi	t1,a5,15
   10208:	05730693          	addi	a3,t1,87
   1020c:	006f6463          	bltu	t5,t1,10214 <kprintf+0xf0>
   10210:	03030693          	addi	a3,t1,48
   10214:	40d727af          	amoor.w	a5,a3,(a4)
   10218:	0007879b          	sext.w	a5,a5
	} while (r < 0);
   1021c:	fe07cce3          	bltz	a5,10214 <kprintf+0xf0>
				for (; i >= 0; i -= 4) {
   10220:	ffc50513          	addi	a0,a0,-4
   10224:	fdd51ee3          	bne	a0,t4,10200 <kprintf+0xdc>
   10228:	f95ff06f          	j	101bc <kprintf+0x98>
				_kputs(va_arg(vl, const char *));
   1022c:	00813783          	ld	a5,8(sp)
   10230:	0007b503          	ld	a0,0(a5)
   10234:	00878793          	addi	a5,a5,8
   10238:	00f13423          	sd	a5,8(sp)
	for (; (c = *s) != '\0'; s++)
   1023c:	00054683          	lbu	a3,0(a0)
   10240:	f6068ee3          	beqz	a3,101bc <kprintf+0x98>
		__asm__ __volatile__ (
   10244:	64000737          	lui	a4,0x64000
   10248:	40d727af          	amoor.w	a5,a3,(a4)
   1024c:	0007879b          	sext.w	a5,a5
	} while (r < 0);
   10250:	fe07cce3          	bltz	a5,10248 <kprintf+0x124>
   10254:	00154683          	lbu	a3,1(a0)
   10258:	00150513          	addi	a0,a0,1
   1025c:	fe0696e3          	bnez	a3,10248 <kprintf+0x124>
   10260:	f5dff06f          	j	101bc <kprintf+0x98>
		} else if (c == '%') {
   10264:	01c31663          	bne	t1,t3,10270 <kprintf+0x14c>
			is_format = true;
   10268:	00100713          	li	a4,1
   1026c:	f5dff06f          	j	101c8 <kprintf+0xa4>
		__asm__ __volatile__ (
   10270:	406627af          	amoor.w	a5,t1,(a2)
   10274:	0007879b          	sext.w	a5,a5
	} while (r < 0);
   10278:	f407d8e3          	bgez	a5,101c8 <kprintf+0xa4>
		__asm__ __volatile__ (
   1027c:	406627af          	amoor.w	a5,t1,(a2)
   10280:	0007879b          	sext.w	a5,a5
	} while (r < 0);
   10284:	fe07c6e3          	bltz	a5,10270 <kprintf+0x14c>
   10288:	f41ff06f          	j	101c8 <kprintf+0xa4>
					n = va_arg(vl, unsigned int);
   1028c:	00e13423          	sd	a4,8(sp)
   10290:	0007ef83          	lwu	t6,0(a5)
					i = is_char ? 4 : (sizeof(unsigned int) << 3) - 4;
   10294:	01c00513          	li	a0,28
   10298:	f40e8ee3          	beqz	t4,101f4 <kprintf+0xd0>
   1029c:	00400513          	li	a0,4
   102a0:	f55ff06f          	j	101f4 <kprintf+0xd0>
			switch (c) {
   102a4:	00070e93          	mv	t4,a4
   102a8:	f21ff06f          	j	101c8 <kprintf+0xa4>
				is_long = true;
   102ac:	00070693          	mv	a3,a4
   102b0:	f19ff06f          	j	101c8 <kprintf+0xa4>

00000000000102b4 <sd_cmd>:
{
	return spi_xfer(0xFF);
}

static uint8_t sd_cmd(uint8_t cmd, uint32_t arg, uint8_t crc)
{
   102b4:	ff010113          	addi	sp,sp,-16
   102b8:	00113423          	sd	ra,8(sp)
   102bc:	00813023          	sd	s0,0(sp)
	unsigned long n;
	uint8_t r;

	REG32(spi, SPI_REG_CSMODE) = SPI_CSMODE_HOLD;
   102c0:	640017b7          	lui	a5,0x64001
   102c4:	00200713          	li	a4,2
   102c8:	00e7ac23          	sw	a4,24(a5) # 64001018 <dtb+0x63ff0678>
	REG32(spi, SPI_REG_TXFIFO) = d;
   102cc:	0ff00713          	li	a4,255
   102d0:	04e7a423          	sw	a4,72(a5)
		r = REG32(spi, SPI_REG_RXFIFO);
   102d4:	64001737          	lui	a4,0x64001
   102d8:	04c72783          	lw	a5,76(a4) # 6400104c <dtb+0x63ff06ac>
	} while (r < 0);
   102dc:	fe07cee3          	bltz	a5,102d8 <sd_cmd+0x24>
	REG32(spi, SPI_REG_TXFIFO) = d;
   102e0:	0005051b          	sext.w	a0,a0
   102e4:	04a72423          	sw	a0,72(a4)
		r = REG32(spi, SPI_REG_RXFIFO);
   102e8:	64001737          	lui	a4,0x64001
   102ec:	04c72783          	lw	a5,76(a4) # 6400104c <dtb+0x63ff06ac>
	} while (r < 0);
   102f0:	fe07cee3          	bltz	a5,102ec <sd_cmd+0x38>
	sd_dummy();
	spi_xfer(cmd);
	spi_xfer(arg >> 24);
   102f4:	0185d79b          	srliw	a5,a1,0x18
	REG32(spi, SPI_REG_TXFIFO) = d;
   102f8:	04f72423          	sw	a5,72(a4)
		r = REG32(spi, SPI_REG_RXFIFO);
   102fc:	64001737          	lui	a4,0x64001
   10300:	04c72783          	lw	a5,76(a4) # 6400104c <dtb+0x63ff06ac>
	} while (r < 0);
   10304:	fe07cee3          	bltz	a5,10300 <sd_cmd+0x4c>
	REG32(spi, SPI_REG_TXFIFO) = d;
   10308:	04072423          	sw	zero,72(a4)
		r = REG32(spi, SPI_REG_RXFIFO);
   1030c:	64001737          	lui	a4,0x64001
   10310:	04c72783          	lw	a5,76(a4) # 6400104c <dtb+0x63ff06ac>
	} while (r < 0);
   10314:	fe07cee3          	bltz	a5,10310 <sd_cmd+0x5c>
	spi_xfer(arg >> 16);
	spi_xfer(arg >> 8);
   10318:	0085d79b          	srliw	a5,a1,0x8
   1031c:	0ff7f793          	zext.b	a5,a5
	REG32(spi, SPI_REG_TXFIFO) = d;
   10320:	04f72423          	sw	a5,72(a4)
		r = REG32(spi, SPI_REG_RXFIFO);
   10324:	64001737          	lui	a4,0x64001
   10328:	04c72783          	lw	a5,76(a4) # 6400104c <dtb+0x63ff06ac>
	} while (r < 0);
   1032c:	fe07cee3          	bltz	a5,10328 <sd_cmd+0x74>
	REG32(spi, SPI_REG_TXFIFO) = d;
   10330:	0ff5f593          	zext.b	a1,a1
   10334:	04b72423          	sw	a1,72(a4)
		r = REG32(spi, SPI_REG_RXFIFO);
   10338:	64001737          	lui	a4,0x64001
   1033c:	04c72783          	lw	a5,76(a4) # 6400104c <dtb+0x63ff06ac>
	} while (r < 0);
   10340:	fe07cee3          	bltz	a5,1033c <sd_cmd+0x88>
	REG32(spi, SPI_REG_TXFIFO) = d;
   10344:	0006079b          	sext.w	a5,a2
   10348:	04f72423          	sw	a5,72(a4)
		r = REG32(spi, SPI_REG_RXFIFO);
   1034c:	64001737          	lui	a4,0x64001
   10350:	04c72783          	lw	a5,76(a4) # 6400104c <dtb+0x63ff06ac>
	} while (r < 0);
   10354:	fe07cee3          	bltz	a5,10350 <sd_cmd+0x9c>
	REG32(spi, SPI_REG_TXFIFO) = d;
   10358:	64001737          	lui	a4,0x64001
   1035c:	3e800693          	li	a3,1000
   10360:	04870593          	addi	a1,a4,72 # 64001048 <dtb+0x63ff06a8>
   10364:	0ff00613          	li	a2,255
   10368:	00c5a023          	sw	a2,0(a1)
		r = REG32(spi, SPI_REG_RXFIFO);
   1036c:	04c72783          	lw	a5,76(a4)
   10370:	0007841b          	sext.w	s0,a5
	} while (r < 0);
   10374:	fe07cce3          	bltz	a5,1036c <sd_cmd+0xb8>
	spi_xfer(crc);

	n = 1000;
	do {
		r = sd_dummy();
		if (!(r & 0x80)) {
   10378:	0184179b          	slliw	a5,s0,0x18
   1037c:	4187d79b          	sraiw	a5,a5,0x18
   10380:	0007dc63          	bgez	a5,10398 <sd_cmd+0xe4>
//			dprintf("sd:cmd: %hx\r\n", r);
			goto done;
		}
	} while (--n > 0);
   10384:	fff68693          	addi	a3,a3,-1
   10388:	fe0690e3          	bnez	a3,10368 <sd_cmd+0xb4>
	kputs("sd_cmd: timeout");
   1038c:	00000517          	auipc	a0,0x0
   10390:	57450513          	addi	a0,a0,1396 # 10900 <main+0x554>
   10394:	d41ff0ef          	jal	ra,100d4 <kputs>
done:
	return r;
}
   10398:	00813083          	ld	ra,8(sp)
   1039c:	0ff47513          	zext.b	a0,s0
   103a0:	00013403          	ld	s0,0(sp)
   103a4:	01010113          	addi	sp,sp,16
   103a8:	00008067          	ret

00000000000103ac <main>:
	return rc;
}

int main(int mhartid, char** dump)
{
	REG32(uart, UART_REG_TXCTRL) = UART_TXEN;
   103ac:	640007b7          	lui	a5,0x64000
   103b0:	00100713          	li	a4,1
   103b4:	00e7a423          	sw	a4,8(a5) # 64000008 <dtb+0x63fef668>

	if (mhartid == 0) {
   103b8:	00050863          	beqz	a0,103c8 <main+0x1c>
	 		return 1;
	 	}
	 	kputs("FINISH");
	 }

	__asm__ __volatile__ ("fence.i" : : : "memory");
   103bc:	0000100f          	fence.i

	return 0;
   103c0:	00000513          	li	a0,0
}
   103c4:	00008067          	ret
{
   103c8:	fd010113          	addi	sp,sp,-48
   103cc:	02813023          	sd	s0,32(sp)
   103d0:	00050413          	mv	s0,a0
		kputs("");
   103d4:	00000517          	auipc	a0,0x0
   103d8:	5ac50513          	addi	a0,a0,1452 # 10980 <main+0x5d4>
{
   103dc:	02113423          	sd	ra,40(sp)
   103e0:	00913c23          	sd	s1,24(sp)
   103e4:	01213823          	sd	s2,16(sp)
   103e8:	01313423          	sd	s3,8(sp)
		kputs("");
   103ec:	ce9ff0ef          	jal	ra,100d4 <kputs>
		kputs("Core 0: ZERO STAGE BOOT..");
   103f0:	00000517          	auipc	a0,0x0
   103f4:	52050513          	addi	a0,a0,1312 # 10910 <main+0x564>
   103f8:	cddff0ef          	jal	ra,100d4 <kputs>
	REG32(spi, SPI_REG_SCKDIV) = (F_CLK / 300000UL);
   103fc:	640017b7          	lui	a5,0x64001
	REG32(spi, SPI_REG_CSMODE) = SPI_CSMODE_OFF;
   10400:	00300713          	li	a4,3
	REG32(spi, SPI_REG_SCKDIV) = (F_CLK / 300000UL);
   10404:	0007a023          	sw	zero,0(a5) # 64001000 <dtb+0x63ff0660>
	REG32(spi, SPI_REG_TXFIFO) = d;
   10408:	640014b7          	lui	s1,0x64001
	REG32(spi, SPI_REG_CSMODE) = SPI_CSMODE_OFF;
   1040c:	00e7ac23          	sw	a4,24(a5)
	REG32(spi, SPI_REG_TXFIFO) = d;
   10410:	04848613          	addi	a2,s1,72 # 64001048 <dtb+0x63ff06a8>
	REG32(spi, SPI_REG_CSMODE) = SPI_CSMODE_OFF;
   10414:	00a00713          	li	a4,10
	REG32(spi, SPI_REG_TXFIFO) = d;
   10418:	0ff00693          	li	a3,255
   1041c:	00d62023          	sw	a3,0(a2) # 64000000 <dtb+0x63fef660>
		r = REG32(spi, SPI_REG_RXFIFO);
   10420:	04c4a783          	lw	a5,76(s1)
	} while (r < 0);
   10424:	fe07cee3          	bltz	a5,10420 <main+0x74>
	for (i = 10; i > 0; i--) {
   10428:	fff70713          	addi	a4,a4,-1
   1042c:	fe0718e3          	bnez	a4,1041c <main+0x70>
	dputs("CMD0");
   10430:	00000517          	auipc	a0,0x0
   10434:	50050513          	addi	a0,a0,1280 # 10930 <main+0x584>
	REG32(spi, SPI_REG_CSMODE) = SPI_CSMODE_AUTO;
   10438:	0004ac23          	sw	zero,24(s1)
	dputs("CMD0");
   1043c:	c99ff0ef          	jal	ra,100d4 <kputs>
	rc = (sd_cmd(0x40, 0, 0x95) != 0x01);
   10440:	09500613          	li	a2,149
   10444:	00000593          	li	a1,0
   10448:	04000513          	li	a0,64
   1044c:	e69ff0ef          	jal	ra,102b4 <sd_cmd>
	REG32(spi, SPI_REG_TXFIFO) = d;
   10450:	0ff00793          	li	a5,255
   10454:	04f4a423          	sw	a5,72(s1)
		r = REG32(spi, SPI_REG_RXFIFO);
   10458:	640014b7          	lui	s1,0x64001
   1045c:	04c4a783          	lw	a5,76(s1) # 6400104c <dtb+0x63ff06ac>
	} while (r < 0);
   10460:	fe07cee3          	bltz	a5,1045c <main+0xb0>
	REG32(spi, SPI_REG_CSMODE) = SPI_CSMODE_AUTO;
   10464:	0004ac23          	sw	zero,24(s1)
	 	if (sd_cmd0() ||
   10468:	00100793          	li	a5,1
   1046c:	0cf51263          	bne	a0,a5,10530 <main+0x184>
	dputs("CMD8");
   10470:	00000517          	auipc	a0,0x0
   10474:	4c850513          	addi	a0,a0,1224 # 10938 <main+0x58c>
   10478:	c5dff0ef          	jal	ra,100d4 <kputs>
	rc = (sd_cmd(0x48, 0x000001AA, 0x87) != 0x01);
   1047c:	08700613          	li	a2,135
   10480:	1aa00593          	li	a1,426
   10484:	04800513          	li	a0,72
   10488:	e2dff0ef          	jal	ra,102b4 <sd_cmd>
   1048c:	0005071b          	sext.w	a4,a0
   10490:	fff70713          	addi	a4,a4,-1
	REG32(spi, SPI_REG_TXFIFO) = d;
   10494:	0ff00793          	li	a5,255
	rc = (sd_cmd(0x48, 0x000001AA, 0x87) != 0x01);
   10498:	00e03633          	snez	a2,a4
	REG32(spi, SPI_REG_TXFIFO) = d;
   1049c:	04f4a423          	sw	a5,72(s1)
		r = REG32(spi, SPI_REG_RXFIFO);
   104a0:	64001737          	lui	a4,0x64001
   104a4:	04c72783          	lw	a5,76(a4) # 6400104c <dtb+0x63ff06ac>
	} while (r < 0);
   104a8:	fe07cee3          	bltz	a5,104a4 <main+0xf8>
	REG32(spi, SPI_REG_TXFIFO) = d;
   104ac:	0ff00793          	li	a5,255
   104b0:	04f72423          	sw	a5,72(a4)
		r = REG32(spi, SPI_REG_RXFIFO);
   104b4:	64001737          	lui	a4,0x64001
   104b8:	04c72783          	lw	a5,76(a4) # 6400104c <dtb+0x63ff06ac>
	} while (r < 0);
   104bc:	fe07cee3          	bltz	a5,104b8 <main+0x10c>
	REG32(spi, SPI_REG_TXFIFO) = d;
   104c0:	0ff00793          	li	a5,255
   104c4:	04f72423          	sw	a5,72(a4)
		r = REG32(spi, SPI_REG_RXFIFO);
   104c8:	640016b7          	lui	a3,0x64001
   104cc:	04c6a783          	lw	a5,76(a3) # 6400104c <dtb+0x63ff06ac>
   104d0:	0007871b          	sext.w	a4,a5
	} while (r < 0);
   104d4:	fe07cce3          	bltz	a5,104cc <main+0x120>
	rc |= ((sd_dummy() & 0xF) != 0x1); /* voltage */
   104d8:	00f77713          	andi	a4,a4,15
   104dc:	fff70793          	addi	a5,a4,-1
   104e0:	00f03733          	snez	a4,a5
	REG32(spi, SPI_REG_TXFIFO) = d;
   104e4:	0ff00793          	li	a5,255
   104e8:	04f6a423          	sw	a5,72(a3)
		r = REG32(spi, SPI_REG_RXFIFO);
   104ec:	640015b7          	lui	a1,0x64001
   104f0:	04c5a783          	lw	a5,76(a1) # 6400104c <dtb+0x63ff06ac>
   104f4:	0007869b          	sext.w	a3,a5
	} while (r < 0);
   104f8:	fe07cce3          	bltz	a5,104f0 <main+0x144>
	rc |= (sd_dummy() != 0xAA); /* check pattern */
   104fc:	0ff6f793          	zext.b	a5,a3
   10500:	f5678793          	addi	a5,a5,-170
   10504:	00f037b3          	snez	a5,a5
   10508:	00f767b3          	or	a5,a4,a5
   1050c:	00f66733          	or	a4,a2,a5
	REG32(spi, SPI_REG_TXFIFO) = d;
   10510:	0ff00793          	li	a5,255
   10514:	0ff77713          	zext.b	a4,a4
   10518:	04f5a423          	sw	a5,72(a1)
		r = REG32(spi, SPI_REG_RXFIFO);
   1051c:	640016b7          	lui	a3,0x64001
   10520:	04c6a783          	lw	a5,76(a3) # 6400104c <dtb+0x63ff06ac>
	} while (r < 0);
   10524:	fe07cee3          	bltz	a5,10520 <main+0x174>
	REG32(spi, SPI_REG_CSMODE) = SPI_CSMODE_AUTO;
   10528:	0006ac23          	sw	zero,24(a3)
	 	if (sd_cmd0() ||
   1052c:	02070863          	beqz	a4,1055c <main+0x1b0>
	 		kputs("ERROR");
   10530:	00000517          	auipc	a0,0x0
   10534:	46050513          	addi	a0,a0,1120 # 10990 <main+0x5e4>
   10538:	b9dff0ef          	jal	ra,100d4 <kputs>
	 		return 1;
   1053c:	00100513          	li	a0,1
}
   10540:	02813083          	ld	ra,40(sp)
   10544:	02013403          	ld	s0,32(sp)
   10548:	01813483          	ld	s1,24(sp)
   1054c:	01013903          	ld	s2,16(sp)
   10550:	00813983          	ld	s3,8(sp)
   10554:	03010113          	addi	sp,sp,48
   10558:	00008067          	ret
	dputs("ACMD41");
   1055c:	00000517          	auipc	a0,0x0
   10560:	3e450513          	addi	a0,a0,996 # 10940 <main+0x594>
   10564:	b71ff0ef          	jal	ra,100d4 <kputs>
	REG32(spi, SPI_REG_TXFIFO) = d;
   10568:	640014b7          	lui	s1,0x64001
   1056c:	0ff00993          	li	s3,255
	} while (r == 0x01);
   10570:	00100913          	li	s2,1
	sd_cmd(0x77, 0, 0x65);
   10574:	06500613          	li	a2,101
   10578:	00000593          	li	a1,0
   1057c:	07700513          	li	a0,119
   10580:	d35ff0ef          	jal	ra,102b4 <sd_cmd>
	REG32(spi, SPI_REG_TXFIFO) = d;
   10584:	0534a423          	sw	s3,72(s1) # 64001048 <dtb+0x63ff06a8>
		r = REG32(spi, SPI_REG_RXFIFO);
   10588:	04c4a783          	lw	a5,76(s1)
	} while (r < 0);
   1058c:	fe07cee3          	bltz	a5,10588 <main+0x1dc>
	REG32(spi, SPI_REG_CSMODE) = SPI_CSMODE_AUTO;
   10590:	0004ac23          	sw	zero,24(s1)
		r = sd_cmd(0x69, 0x40000000, 0x77); /* HCS = 1 */
   10594:	07700613          	li	a2,119
   10598:	400005b7          	lui	a1,0x40000
   1059c:	06900513          	li	a0,105
   105a0:	d15ff0ef          	jal	ra,102b4 <sd_cmd>
	} while (r == 0x01);
   105a4:	fd2508e3          	beq	a0,s2,10574 <main+0x1c8>
	 		sd_cmd8() ||
   105a8:	f80514e3          	bnez	a0,10530 <main+0x184>
	dputs("CMD58");
   105ac:	00000517          	auipc	a0,0x0
   105b0:	39c50513          	addi	a0,a0,924 # 10948 <main+0x59c>
   105b4:	b21ff0ef          	jal	ra,100d4 <kputs>
	rc = (sd_cmd(0x7A, 0, 0xFD) != 0x00);
   105b8:	0fd00613          	li	a2,253
   105bc:	00000593          	li	a1,0
   105c0:	07a00513          	li	a0,122
   105c4:	cf1ff0ef          	jal	ra,102b4 <sd_cmd>
	REG32(spi, SPI_REG_TXFIFO) = d;
   105c8:	0ff00793          	li	a5,255
	rc = (sd_cmd(0x7A, 0, 0xFD) != 0x00);
   105cc:	00a03633          	snez	a2,a0
	REG32(spi, SPI_REG_TXFIFO) = d;
   105d0:	04f4a423          	sw	a5,72(s1)
		r = REG32(spi, SPI_REG_RXFIFO);
   105d4:	640016b7          	lui	a3,0x64001
   105d8:	04c6a783          	lw	a5,76(a3) # 6400104c <dtb+0x63ff06ac>
   105dc:	0007871b          	sext.w	a4,a5
	} while (r < 0);
   105e0:	fe07cce3          	bltz	a5,105d8 <main+0x22c>
	rc |= ((sd_dummy() & 0x80) != 0x80); /* Power up status */
   105e4:	4077579b          	sraiw	a5,a4,0x7
   105e8:	0017c793          	xori	a5,a5,1
   105ec:	0017f793          	andi	a5,a5,1
   105f0:	00f66633          	or	a2,a2,a5
	REG32(spi, SPI_REG_TXFIFO) = d;
   105f4:	0ff00793          	li	a5,255
   105f8:	04f6a423          	sw	a5,72(a3)
		r = REG32(spi, SPI_REG_RXFIFO);
   105fc:	64001737          	lui	a4,0x64001
   10600:	04c72783          	lw	a5,76(a4) # 6400104c <dtb+0x63ff06ac>
	} while (r < 0);
   10604:	fe07cee3          	bltz	a5,10600 <main+0x254>
	REG32(spi, SPI_REG_TXFIFO) = d;
   10608:	0ff00793          	li	a5,255
   1060c:	04f72423          	sw	a5,72(a4)
		r = REG32(spi, SPI_REG_RXFIFO);
   10610:	64001737          	lui	a4,0x64001
   10614:	04c72783          	lw	a5,76(a4) # 6400104c <dtb+0x63ff06ac>
	} while (r < 0);
   10618:	fe07cee3          	bltz	a5,10614 <main+0x268>
	REG32(spi, SPI_REG_TXFIFO) = d;
   1061c:	0ff00793          	li	a5,255
   10620:	04f72423          	sw	a5,72(a4)
		r = REG32(spi, SPI_REG_RXFIFO);
   10624:	64001737          	lui	a4,0x64001
   10628:	04c72783          	lw	a5,76(a4) # 6400104c <dtb+0x63ff06ac>
	} while (r < 0);
   1062c:	fe07cee3          	bltz	a5,10628 <main+0x27c>
	REG32(spi, SPI_REG_TXFIFO) = d;
   10630:	0ff00793          	li	a5,255
   10634:	04f72423          	sw	a5,72(a4)
		r = REG32(spi, SPI_REG_RXFIFO);
   10638:	640014b7          	lui	s1,0x64001
   1063c:	04c4a783          	lw	a5,76(s1) # 6400104c <dtb+0x63ff06ac>
	} while (r < 0);
   10640:	fe07cee3          	bltz	a5,1063c <main+0x290>
	REG32(spi, SPI_REG_CSMODE) = SPI_CSMODE_AUTO;
   10644:	0004ac23          	sw	zero,24(s1)
	 		sd_acmd41() ||
   10648:	ee0614e3          	bnez	a2,10530 <main+0x184>
	dputs("CMD16");
   1064c:	00000517          	auipc	a0,0x0
   10650:	30450513          	addi	a0,a0,772 # 10950 <main+0x5a4>
   10654:	a81ff0ef          	jal	ra,100d4 <kputs>
	rc = (sd_cmd(0x50, 0x200, 0x15) != 0x00);
   10658:	01500613          	li	a2,21
   1065c:	20000593          	li	a1,512
   10660:	05000513          	li	a0,80
   10664:	c51ff0ef          	jal	ra,102b4 <sd_cmd>
	REG32(spi, SPI_REG_TXFIFO) = d;
   10668:	0ff00793          	li	a5,255
   1066c:	04f4a423          	sw	a5,72(s1)
	rc = (sd_cmd(0x50, 0x200, 0x15) != 0x00);
   10670:	00050713          	mv	a4,a0
		r = REG32(spi, SPI_REG_RXFIFO);
   10674:	640014b7          	lui	s1,0x64001
   10678:	04c4a783          	lw	a5,76(s1) # 6400104c <dtb+0x63ff06ac>
	} while (r < 0);
   1067c:	fe07cee3          	bltz	a5,10678 <main+0x2cc>
	REG32(spi, SPI_REG_CSMODE) = SPI_CSMODE_AUTO;
   10680:	0004ac23          	sw	zero,24(s1)
	 		sd_cmd58() ||
   10684:	ea0716e3          	bnez	a4,10530 <main+0x184>
	dputs("CMD18");
   10688:	00000517          	auipc	a0,0x0
   1068c:	2d050513          	addi	a0,a0,720 # 10958 <main+0x5ac>
   10690:	a45ff0ef          	jal	ra,100d4 <kputs>
	kprintf("LOADING  ");
   10694:	00000517          	auipc	a0,0x0
   10698:	2cc50513          	addi	a0,a0,716 # 10960 <main+0x5b4>
   1069c:	a89ff0ef          	jal	ra,10124 <kprintf>
	if (sd_cmd(0x52, BBL_PARTITION_START_SECTOR, 0x51) != 0x00) {
   106a0:	000015b7          	lui	a1,0x1
	REG32(spi, SPI_REG_SCKDIV) = (F_CLK / 5000000UL);
   106a4:	0004a023          	sw	zero,0(s1)
	if (sd_cmd(0x52, BBL_PARTITION_START_SECTOR, 0x51) != 0x00) {
   106a8:	05100613          	li	a2,81
   106ac:	80058593          	addi	a1,a1,-2048 # 800 <_prog_start-0xf800>
   106b0:	05200513          	li	a0,82
   106b4:	c01ff0ef          	jal	ra,102b4 <sd_cmd>
   106b8:	18051863          	bnez	a0,10848 <main+0x49c>
	} while (--i > 0);
   106bc:	00080eb7          	lui	t4,0x80
	volatile uint8_t *p = (void *)(PAYLOAD_DEST);
   106c0:	00100813          	li	a6,1
	crc ^= (crc & 0xff) << 5;
   106c4:	000028b7          	lui	a7,0x2
	} while (--i > 0);
   106c8:	001e8e93          	addi	t4,t4,1 # 80001 <dtb+0x6f661>
	volatile uint8_t *p = (void *)(PAYLOAD_DEST);
   106cc:	01f81813          	slli	a6,a6,0x1f
	REG32(spi, SPI_REG_TXFIFO) = d;
   106d0:	640016b7          	lui	a3,0x64001
   106d4:	0ff00f13          	li	t5,255
   106d8:	0ff00513          	li	a0,255
		while (sd_dummy() != 0xFE);
   106dc:	0fe00e13          	li	t3,254
		r = REG32(spi, SPI_REG_RXFIFO);
   106e0:	64001fb7          	lui	t6,0x64001
	crc ^= (crc & 0xff) << 5;
   106e4:	fe088893          	addi	a7,a7,-32 # 1fe0 <_prog_start-0xe020>
	} while (--i > 0);
   106e8:	00ce9e93          	slli	t4,t4,0xc
	REG32(spi, SPI_REG_TXFIFO) = d;
   106ec:	04868613          	addi	a2,a3,72 # 64001048 <dtb+0x63ff06a8>
   106f0:	00a62023          	sw	a0,0(a2)
		r = REG32(spi, SPI_REG_RXFIFO);
   106f4:	04c6a783          	lw	a5,76(a3)
   106f8:	0007871b          	sext.w	a4,a5
	} while (r < 0);
   106fc:	fe07cce3          	bltz	a5,106f4 <main+0x348>
		while (sd_dummy() != 0xFE);
   10700:	0ff77713          	zext.b	a4,a4
   10704:	ffc716e3          	bne	a4,t3,106f0 <main+0x344>
   10708:	00080593          	mv	a1,a6
		crc = 0;
   1070c:	00000613          	li	a2,0
   10710:	20080813          	addi	a6,a6,512
	REG32(spi, SPI_REG_TXFIFO) = d;
   10714:	04868313          	addi	t1,a3,72
   10718:	00a32023          	sw	a0,0(t1)
		r = REG32(spi, SPI_REG_RXFIFO);
   1071c:	04c6a783          	lw	a5,76(a3)
   10720:	0007871b          	sext.w	a4,a5
	} while (r < 0);
   10724:	fe07cce3          	bltz	a5,1071c <main+0x370>
	return r;
   10728:	0086179b          	slliw	a5,a2,0x8
   1072c:	0086561b          	srliw	a2,a2,0x8
   10730:	00c7e7b3          	or	a5,a5,a2
   10734:	03079793          	slli	a5,a5,0x30
   10738:	0ff77713          	zext.b	a4,a4
			*p++ = x;
   1073c:	0307d793          	srli	a5,a5,0x30
	crc ^= data;
   10740:	00f747b3          	xor	a5,a4,a5
	crc ^= (uint8_t)(crc >> 4) & 0xf;
   10744:	0047d61b          	srliw	a2,a5,0x4
   10748:	00f67613          	andi	a2,a2,15
   1074c:	00c7c7b3          	xor	a5,a5,a2
	crc ^= crc << 12;
   10750:	00c7961b          	slliw	a2,a5,0xc
   10754:	00c7c7b3          	xor	a5,a5,a2
	crc ^= (crc & 0xff) << 5;
   10758:	0107961b          	slliw	a2,a5,0x10
   1075c:	0106561b          	srliw	a2,a2,0x10
   10760:	0056161b          	slliw	a2,a2,0x5
   10764:	00c8f633          	and	a2,a7,a2
   10768:	00c7c7b3          	xor	a5,a5,a2
   1076c:	03079613          	slli	a2,a5,0x30
			*p++ = x;
   10770:	00158293          	addi	t0,a1,1
   10774:	00e58023          	sb	a4,0(a1)
	crc ^= (crc & 0xff) << 5;
   10778:	03065613          	srli	a2,a2,0x30
		} while (--n > 0);
   1077c:	01028663          	beq	t0,a6,10788 <main+0x3dc>
			*p++ = x;
   10780:	00028593          	mv	a1,t0
   10784:	f95ff06f          	j	10718 <main+0x36c>
	REG32(spi, SPI_REG_TXFIFO) = d;
   10788:	05efa423          	sw	t5,72(t6) # 64001048 <dtb+0x63ff06a8>
		r = REG32(spi, SPI_REG_RXFIFO);
   1078c:	04c6a783          	lw	a5,76(a3)
   10790:	0007871b          	sext.w	a4,a5
	} while (r < 0);
   10794:	fe07cce3          	bltz	a5,1078c <main+0x3e0>
		crc_exp = ((uint16_t)sd_dummy() << 8);
   10798:	0ff77713          	zext.b	a4,a4
   1079c:	0087171b          	slliw	a4,a4,0x8
   107a0:	03071713          	slli	a4,a4,0x30
   107a4:	03075713          	srli	a4,a4,0x30
	REG32(spi, SPI_REG_TXFIFO) = d;
   107a8:	05e6a423          	sw	t5,72(a3)
		r = REG32(spi, SPI_REG_RXFIFO);
   107ac:	04c6a783          	lw	a5,76(a3)
   107b0:	0007859b          	sext.w	a1,a5
	} while (r < 0);
   107b4:	fe07cce3          	bltz	a5,107ac <main+0x400>
		crc_exp |= sd_dummy();
   107b8:	0ff5f793          	zext.b	a5,a1
		if (crc != crc_exp) {
   107bc:	00e7e7b3          	or	a5,a5,a4
   107c0:	06c79a63          	bne	a5,a2,10834 <main+0x488>
	} while (--i > 0);
   107c4:	f3d294e3          	bne	t0,t4,106ec <main+0x340>
	REG32(spi, SPI_REG_TXFIFO) = d;
   107c8:	640017b7          	lui	a5,0x64001
   107cc:	0ff00713          	li	a4,255
   107d0:	04e7a423          	sw	a4,72(a5) # 64001048 <dtb+0x63ff06a8>
		r = REG32(spi, SPI_REG_RXFIFO);
   107d4:	640014b7          	lui	s1,0x64001
   107d8:	04c4a783          	lw	a5,76(s1) # 6400104c <dtb+0x63ff06ac>
	} while (r < 0);
   107dc:	fe07cee3          	bltz	a5,107d8 <main+0x42c>
	REG32(spi, SPI_REG_CSMODE) = SPI_CSMODE_AUTO;
   107e0:	0004ac23          	sw	zero,24(s1)
	sd_cmd(0x4C, 0, 0x01);
   107e4:	00100613          	li	a2,1
   107e8:	00000593          	li	a1,0
   107ec:	04c00513          	li	a0,76
   107f0:	ac5ff0ef          	jal	ra,102b4 <sd_cmd>
	REG32(spi, SPI_REG_TXFIFO) = d;
   107f4:	0ff00793          	li	a5,255
   107f8:	04f4a423          	sw	a5,72(s1)
		r = REG32(spi, SPI_REG_RXFIFO);
   107fc:	640017b7          	lui	a5,0x64001
   10800:	04c7a703          	lw	a4,76(a5) # 6400104c <dtb+0x63ff06ac>
	} while (r < 0);
   10804:	fe074ee3          	bltz	a4,10800 <main+0x454>
	REG32(spi, SPI_REG_CSMODE) = SPI_CSMODE_AUTO;
   10808:	0007ac23          	sw	zero,24(a5)
	kputs("\b ");
   1080c:	00000517          	auipc	a0,0x0
   10810:	17c50513          	addi	a0,a0,380 # 10988 <main+0x5dc>
   10814:	8c1ff0ef          	jal	ra,100d4 <kputs>
	 		sd_cmd16() ||
   10818:	d0041ce3          	bnez	s0,10530 <main+0x184>
	 	kputs("FINISH");
   1081c:	00000517          	auipc	a0,0x0
   10820:	17c50513          	addi	a0,a0,380 # 10998 <main+0x5ec>
   10824:	8b1ff0ef          	jal	ra,100d4 <kputs>
	__asm__ __volatile__ ("fence.i" : : : "memory");
   10828:	0000100f          	fence.i
	return 0;
   1082c:	00000513          	li	a0,0
   10830:	d11ff06f          	j	10540 <main+0x194>
			kputs("\b- CRC mismatch ");
   10834:	00000517          	auipc	a0,0x0
   10838:	13c50513          	addi	a0,a0,316 # 10970 <main+0x5c4>
   1083c:	899ff0ef          	jal	ra,100d4 <kputs>
			rc = 1;
   10840:	00100413          	li	s0,1
			break;
   10844:	f85ff06f          	j	107c8 <main+0x41c>
	REG32(spi, SPI_REG_TXFIFO) = d;
   10848:	0ff00793          	li	a5,255
   1084c:	04f4a423          	sw	a5,72(s1)
		r = REG32(spi, SPI_REG_RXFIFO);
   10850:	640017b7          	lui	a5,0x64001
   10854:	04c7a703          	lw	a4,76(a5) # 6400104c <dtb+0x63ff06ac>
	} while (r < 0);
   10858:	fe074ee3          	bltz	a4,10854 <main+0x4a8>
	REG32(spi, SPI_REG_CSMODE) = SPI_CSMODE_AUTO;
   1085c:	0007ac23          	sw	zero,24(a5)
		return 1;
   10860:	cd1ff06f          	j	10530 <main+0x184>
	...
