
/home/binhkieudo/Workspace/tmp/tmp/ManyCore/framework/sw/helloWorld/build/hello.elf:     file format elf64-littleriscv


Disassembly of section .text:

0000000080000000 <_prog_start>:

  .section .text.init
  .option norvc
  .globl _prog_start
_prog_start:
  beq a0, zero, _main
    80000000:	00050463          	beqz	a0,80000008 <_main>
  j _loopback
    80000004:	0200006f          	j	80000024 <_loopback>

0000000080000008 <_main>:
_main:
  csrw mie, s2
    80000008:	30491073          	csrw	mie,s2
  li sp, (PAYLOAD_DEST + 0x1ff0)
    8000000c:	00040137          	lui	sp,0x40
    80000010:	0011011b          	addiw	sp,sp,1 # 40001 <_prog_start-0x7ffbffff>
    80000014:	00d11113          	slli	sp,sp,0xd
    80000018:	ff010113          	addi	sp,sp,-16
  call main
    8000001c:	00c000ef          	jal	ra,80000028 <main>
  wfi
    80000020:	10500073          	wfi

0000000080000024 <_loopback>:
_loopback:
  j _loopback
    80000024:	0000006f          	j	80000024 <_loopback>

0000000080000028 <main>:
#include "include/platform.h"
#include "kprintf.h"

#define REG32(p, i)	((p)[(i) >> 2])

int main(int argc, char **arv) {
    80000028:	7179                	addi	sp,sp,-48
    8000002a:	f406                	sd	ra,40(sp)
    8000002c:	f022                	sd	s0,32(sp)
    8000002e:	1800                	addi	s0,sp,48
    80000030:	87aa                	mv	a5,a0
    80000032:	fcb43823          	sd	a1,-48(s0)
    80000036:	fcf42e23          	sw	a5,-36(s0)
  
  REG32(uart, UART_REG_TXCTRL) = UART_TXEN;
    8000003a:	640007b7          	lui	a5,0x64000
    8000003e:	07a1                	addi	a5,a5,8 # 64000008 <_prog_start-0x1bfffff8>
    80000040:	4705                	li	a4,1
    80000042:	c398                	sw	a4,0(a5)

  uint32_t mhartid = read_csr(mhartid);
    80000044:	f14027f3          	csrr	a5,mhartid
    80000048:	fef43423          	sd	a5,-24(s0)
    8000004c:	fe843783          	ld	a5,-24(s0)
    80000050:	fef42223          	sw	a5,-28(s0)

  kprintf("Hello world from core %c!!!\r\n", mhartid + 48);
    80000054:	fe442783          	lw	a5,-28(s0)
    80000058:	0307879b          	addiw	a5,a5,48
    8000005c:	2781                	sext.w	a5,a5
    8000005e:	85be                	mv	a1,a5
    80000060:	00000517          	auipc	a0,0x0
    80000064:	2e850513          	addi	a0,a0,744 # 80000348 <uart+0x8>
    80000068:	0bc000ef          	jal	ra,80000124 <kprintf>

  return 0;
    8000006c:	4781                	li	a5,0
}
    8000006e:	853e                	mv	a0,a5
    80000070:	70a2                	ld	ra,40(sp)
    80000072:	7402                	ld	s0,32(sp)
    80000074:	6145                	addi	sp,sp,48
    80000076:	8082                	ret

0000000080000078 <kputc>:
  #define UART_CTRL_ADDR _UART_CTRL_ADDR(UART_NUM)
#endif
static volatile uint32_t * const uart = (void *)(UART_CTRL_ADDR);

static inline void kputc(char c)
{
    80000078:	7179                	addi	sp,sp,-48
    8000007a:	f422                	sd	s0,40(sp)
    8000007c:	1800                	addi	s0,sp,48
    8000007e:	87aa                	mv	a5,a0
    80000080:	fcf40fa3          	sb	a5,-33(s0)
	volatile uint32_t *tx = &REG32(uart, UART_REG_TXFIFO);
    80000084:	640007b7          	lui	a5,0x64000
    80000088:	fef43423          	sd	a5,-24(s0)
#ifdef __riscv_atomic
	int32_t r;
	do {
		__asm__ __volatile__ (
    8000008c:	fe843703          	ld	a4,-24(s0)
    80000090:	fdf44783          	lbu	a5,-33(s0)
    80000094:	86be                	mv	a3,a5
    80000096:	fe843783          	ld	a5,-24(s0)
    8000009a:	40d727af          	amoor.w	a5,a3,(a4)
    8000009e:	fef42223          	sw	a5,-28(s0)
			"amoor.w %0, %2, %1\n"
			: "=r" (r), "+A" (*tx)
			: "r" (c));
	} while (r < 0);
    800000a2:	fe442783          	lw	a5,-28(s0)
    800000a6:	2781                	sext.w	a5,a5
    800000a8:	fe07c2e3          	bltz	a5,8000008c <kputc+0x14>
#else
	while ((int32_t)(*tx) < 0);
	*tx = c;
#endif
}
    800000ac:	0001                	nop
    800000ae:	0001                	nop
    800000b0:	7422                	ld	s0,40(sp)
    800000b2:	6145                	addi	sp,sp,48
    800000b4:	8082                	ret

00000000800000b6 <_kputs>:
#include <stdbool.h>

#include "kprintf.h"

static inline void _kputs(const char *s)
{
    800000b6:	7179                	addi	sp,sp,-48
    800000b8:	f406                	sd	ra,40(sp)
    800000ba:	f022                	sd	s0,32(sp)
    800000bc:	1800                	addi	s0,sp,48
    800000be:	fca43c23          	sd	a0,-40(s0)
	char c;
	for (; (c = *s) != '\0'; s++)
    800000c2:	a819                	j	800000d8 <_kputs+0x22>
		kputc(c);
    800000c4:	fef44783          	lbu	a5,-17(s0)
    800000c8:	853e                	mv	a0,a5
    800000ca:	fafff0ef          	jal	ra,80000078 <kputc>
	for (; (c = *s) != '\0'; s++)
    800000ce:	fd843783          	ld	a5,-40(s0)
    800000d2:	0785                	addi	a5,a5,1 # 64000001 <_prog_start-0x1bffffff>
    800000d4:	fcf43c23          	sd	a5,-40(s0)
    800000d8:	fd843783          	ld	a5,-40(s0)
    800000dc:	0007c783          	lbu	a5,0(a5)
    800000e0:	fef407a3          	sb	a5,-17(s0)
    800000e4:	fef44783          	lbu	a5,-17(s0)
    800000e8:	0ff7f793          	zext.b	a5,a5
    800000ec:	ffe1                	bnez	a5,800000c4 <_kputs+0xe>
}
    800000ee:	0001                	nop
    800000f0:	0001                	nop
    800000f2:	70a2                	ld	ra,40(sp)
    800000f4:	7402                	ld	s0,32(sp)
    800000f6:	6145                	addi	sp,sp,48
    800000f8:	8082                	ret

00000000800000fa <kputs>:

void kputs(const char *s)
{
    800000fa:	1101                	addi	sp,sp,-32
    800000fc:	ec06                	sd	ra,24(sp)
    800000fe:	e822                	sd	s0,16(sp)
    80000100:	1000                	addi	s0,sp,32
    80000102:	fea43423          	sd	a0,-24(s0)
	_kputs(s);
    80000106:	fe843503          	ld	a0,-24(s0)
    8000010a:	fadff0ef          	jal	ra,800000b6 <_kputs>
	kputc('\r');
    8000010e:	4535                	li	a0,13
    80000110:	f69ff0ef          	jal	ra,80000078 <kputc>
	kputc('\n');
    80000114:	4529                	li	a0,10
    80000116:	f63ff0ef          	jal	ra,80000078 <kputc>
}
    8000011a:	0001                	nop
    8000011c:	60e2                	ld	ra,24(sp)
    8000011e:	6442                	ld	s0,16(sp)
    80000120:	6105                	addi	sp,sp,32
    80000122:	8082                	ret

0000000080000124 <kprintf>:

void kprintf(const char *fmt, ...)
{
    80000124:	7175                	addi	sp,sp,-144
    80000126:	e486                	sd	ra,72(sp)
    80000128:	e0a2                	sd	s0,64(sp)
    8000012a:	0880                	addi	s0,sp,80
    8000012c:	faa43c23          	sd	a0,-72(s0)
    80000130:	e40c                	sd	a1,8(s0)
    80000132:	e810                	sd	a2,16(s0)
    80000134:	ec14                	sd	a3,24(s0)
    80000136:	f018                	sd	a4,32(s0)
    80000138:	f41c                	sd	a5,40(s0)
    8000013a:	03043823          	sd	a6,48(s0)
    8000013e:	03143c23          	sd	a7,56(s0)
	va_list vl;
	bool is_format, is_long, is_char;
	char c;

	va_start(vl, fmt);
    80000142:	04040793          	addi	a5,s0,64
    80000146:	faf43823          	sd	a5,-80(s0)
    8000014a:	fb043783          	ld	a5,-80(s0)
    8000014e:	fc878793          	addi	a5,a5,-56
    80000152:	fcf43023          	sd	a5,-64(s0)
	is_format = false;
    80000156:	fe0407a3          	sb	zero,-17(s0)
	is_long = false;
    8000015a:	fe040723          	sb	zero,-18(s0)
	is_char = false;
    8000015e:	fe0406a3          	sb	zero,-19(s0)
	while ((c = *fmt++) != '\0') {
    80000162:	a29d                	j	800002c8 <kprintf+0x1a4>
		if (is_format) {
    80000164:	fef44783          	lbu	a5,-17(s0)
    80000168:	0ff7f793          	zext.b	a5,a5
    8000016c:	12078d63          	beqz	a5,800002a6 <kprintf+0x182>
			switch (c) {
    80000170:	fd744783          	lbu	a5,-41(s0)
    80000174:	2781                	sext.w	a5,a5
    80000176:	f9d7869b          	addiw	a3,a5,-99
    8000017a:	0006871b          	sext.w	a4,a3
    8000017e:	47d5                	li	a5,21
    80000180:	10e7ec63          	bltu	a5,a4,80000298 <kprintf+0x174>
    80000184:	02069793          	slli	a5,a3,0x20
    80000188:	9381                	srli	a5,a5,0x20
    8000018a:	00279713          	slli	a4,a5,0x2
    8000018e:	00000797          	auipc	a5,0x0
    80000192:	1da78793          	addi	a5,a5,474 # 80000368 <uart+0x28>
    80000196:	97ba                	add	a5,a5,a4
    80000198:	439c                	lw	a5,0(a5)
    8000019a:	0007871b          	sext.w	a4,a5
    8000019e:	00000797          	auipc	a5,0x0
    800001a2:	1ca78793          	addi	a5,a5,458 # 80000368 <uart+0x28>
    800001a6:	97ba                	add	a5,a5,a4
    800001a8:	8782                	jr	a5
			case 'l':
				is_long = true;
    800001aa:	4785                	li	a5,1
    800001ac:	fef40723          	sb	a5,-18(s0)
				continue;
    800001b0:	aa21                	j	800002c8 <kprintf+0x1a4>
			case 'h':
				is_char = true;
    800001b2:	4785                	li	a5,1
    800001b4:	fef406a3          	sb	a5,-19(s0)
				continue;
    800001b8:	aa01                	j	800002c8 <kprintf+0x1a4>
			case 'x': {
				unsigned long n;
				long i;
				if (is_long) {
    800001ba:	fee44783          	lbu	a5,-18(s0)
    800001be:	0ff7f793          	zext.b	a5,a5
    800001c2:	cf99                	beqz	a5,800001e0 <kprintf+0xbc>
					n = va_arg(vl, unsigned long);
    800001c4:	fc043783          	ld	a5,-64(s0)
    800001c8:	00878713          	addi	a4,a5,8
    800001cc:	fce43023          	sd	a4,-64(s0)
    800001d0:	639c                	ld	a5,0(a5)
    800001d2:	fef43023          	sd	a5,-32(s0)
					i = (sizeof(unsigned long) << 3) - 4;
    800001d6:	03c00793          	li	a5,60
    800001da:	fcf43c23          	sd	a5,-40(s0)
    800001de:	a041                	j	8000025e <kprintf+0x13a>
				} else {
					n = va_arg(vl, unsigned int);
    800001e0:	fc043783          	ld	a5,-64(s0)
    800001e4:	00878713          	addi	a4,a5,8
    800001e8:	fce43023          	sd	a4,-64(s0)
    800001ec:	439c                	lw	a5,0(a5)
    800001ee:	1782                	slli	a5,a5,0x20
    800001f0:	9381                	srli	a5,a5,0x20
    800001f2:	fef43023          	sd	a5,-32(s0)
					i = is_char ? 4 : (sizeof(unsigned int) << 3) - 4;
    800001f6:	fed44783          	lbu	a5,-19(s0)
    800001fa:	0ff7f793          	zext.b	a5,a5
    800001fe:	c399                	beqz	a5,80000204 <kprintf+0xe0>
    80000200:	4791                	li	a5,4
    80000202:	a011                	j	80000206 <kprintf+0xe2>
    80000204:	47f1                	li	a5,28
    80000206:	fcf43c23          	sd	a5,-40(s0)
				}
				for (; i >= 0; i -= 4) {
    8000020a:	a891                	j	8000025e <kprintf+0x13a>
					long d;
					d = (n >> i) & 0xF;
    8000020c:	fd843783          	ld	a5,-40(s0)
    80000210:	2781                	sext.w	a5,a5
    80000212:	873e                	mv	a4,a5
    80000214:	fe043783          	ld	a5,-32(s0)
    80000218:	00e7d7b3          	srl	a5,a5,a4
    8000021c:	8bbd                	andi	a5,a5,15
    8000021e:	fcf43423          	sd	a5,-56(s0)
					kputc(d < 10 ? '0' + d : 'a' + d - 10);
    80000222:	fc843703          	ld	a4,-56(s0)
    80000226:	47a5                	li	a5,9
    80000228:	00e7cb63          	blt	a5,a4,8000023e <kprintf+0x11a>
    8000022c:	fc843783          	ld	a5,-56(s0)
    80000230:	0ff7f793          	zext.b	a5,a5
    80000234:	0307879b          	addiw	a5,a5,48
    80000238:	0ff7f793          	zext.b	a5,a5
    8000023c:	a809                	j	8000024e <kprintf+0x12a>
    8000023e:	fc843783          	ld	a5,-56(s0)
    80000242:	0ff7f793          	zext.b	a5,a5
    80000246:	0577879b          	addiw	a5,a5,87
    8000024a:	0ff7f793          	zext.b	a5,a5
    8000024e:	853e                	mv	a0,a5
    80000250:	e29ff0ef          	jal	ra,80000078 <kputc>
				for (; i >= 0; i -= 4) {
    80000254:	fd843783          	ld	a5,-40(s0)
    80000258:	17f1                	addi	a5,a5,-4
    8000025a:	fcf43c23          	sd	a5,-40(s0)
    8000025e:	fd843783          	ld	a5,-40(s0)
    80000262:	fa07d5e3          	bgez	a5,8000020c <kprintf+0xe8>
				}
				break;
    80000266:	a80d                	j	80000298 <kprintf+0x174>
			}
			case 's':
				_kputs(va_arg(vl, const char *));
    80000268:	fc043783          	ld	a5,-64(s0)
    8000026c:	00878713          	addi	a4,a5,8
    80000270:	fce43023          	sd	a4,-64(s0)
    80000274:	639c                	ld	a5,0(a5)
    80000276:	853e                	mv	a0,a5
    80000278:	e3fff0ef          	jal	ra,800000b6 <_kputs>
				break;
    8000027c:	a831                	j	80000298 <kprintf+0x174>
			case 'c':
				kputc(va_arg(vl, int));
    8000027e:	fc043783          	ld	a5,-64(s0)
    80000282:	00878713          	addi	a4,a5,8
    80000286:	fce43023          	sd	a4,-64(s0)
    8000028a:	439c                	lw	a5,0(a5)
    8000028c:	0ff7f793          	zext.b	a5,a5
    80000290:	853e                	mv	a0,a5
    80000292:	de7ff0ef          	jal	ra,80000078 <kputc>
				break;
    80000296:	0001                	nop
			}
			is_format = false;
    80000298:	fe0407a3          	sb	zero,-17(s0)
			is_long = false;
    8000029c:	fe040723          	sb	zero,-18(s0)
			is_char = false;
    800002a0:	fe0406a3          	sb	zero,-19(s0)
    800002a4:	a015                	j	800002c8 <kprintf+0x1a4>
		} else if (c == '%') {
    800002a6:	fd744783          	lbu	a5,-41(s0)
    800002aa:	0ff7f713          	zext.b	a4,a5
    800002ae:	02500793          	li	a5,37
    800002b2:	00f71663          	bne	a4,a5,800002be <kprintf+0x19a>
			is_format = true;
    800002b6:	4785                	li	a5,1
    800002b8:	fef407a3          	sb	a5,-17(s0)
    800002bc:	a031                	j	800002c8 <kprintf+0x1a4>
		} else {
			kputc(c);
    800002be:	fd744783          	lbu	a5,-41(s0)
    800002c2:	853e                	mv	a0,a5
    800002c4:	db5ff0ef          	jal	ra,80000078 <kputc>
	while ((c = *fmt++) != '\0') {
    800002c8:	fb843783          	ld	a5,-72(s0)
    800002cc:	00178713          	addi	a4,a5,1
    800002d0:	fae43c23          	sd	a4,-72(s0)
    800002d4:	0007c783          	lbu	a5,0(a5)
    800002d8:	fcf40ba3          	sb	a5,-41(s0)
    800002dc:	fd744783          	lbu	a5,-41(s0)
    800002e0:	0ff7f793          	zext.b	a5,a5
    800002e4:	e80790e3          	bnez	a5,80000164 <kprintf+0x40>
		}
	}
	va_end(vl);
}
    800002e8:	0001                	nop
    800002ea:	0001                	nop
    800002ec:	60a6                	ld	ra,72(sp)
    800002ee:	6406                	ld	s0,64(sp)
    800002f0:	6149                	addi	sp,sp,144
    800002f2:	8082                	ret
	...

Disassembly of section .srodata:

0000000080000338 <uart>:
static volatile uint32_t * const uart = (void *)(UART_CTRL_ADDR);
    80000338:	0000                	unimp
    8000033a:	6400                	ld	s0,8(s0)
    8000033c:	0000                	unimp
	...

0000000080000340 <uart>:
    80000340:	0000                	unimp
    80000342:	6400                	ld	s0,8(s0)
    80000344:	0000                	unimp
	...
