
/home/binhkieudo/Workspace/tmp/tmp/ManyCore/framework/sw/helloWorld/build/hello.elf:     file format elf64-littleriscv


Disassembly of section .text:

0000000080000000 <_prog_start>:

  .section .text.init
  .option norvc
  .globl _prog_start
_prog_start:
  beq a0, zero, _main
    80000000:	00050463          	beqz	a0,80000008 <_main>
  j _loopback
    80000004:	0200006f          	j	80000024 <_loopback>

0000000080000008 <_main>:
_main:
  csrw mie, s2
    80000008:	30491073          	csrw	mie,s2
  li sp, (PAYLOAD_DEST + 0x1ff0)
    8000000c:	00040137          	lui	sp,0x40
    80000010:	0011011b          	addiw	sp,sp,1 # 40001 <_prog_start-0x7ffbffff>
    80000014:	00d11113          	slli	sp,sp,0xd
    80000018:	ff010113          	addi	sp,sp,-16
  call main
    8000001c:	00c000ef          	jal	ra,80000028 <main>
  wfi
    80000020:	10500073          	wfi

0000000080000024 <_loopback>:
_loopback:
  j _loopback
    80000024:	0000006f          	j	80000024 <_loopback>

0000000080000028 <main>:
#include "include/platform.h"
#include "kprintf.h"

#define REG32(p, i)	((p)[(i) >> 2])

int main(int argc, char **arv) {
    80000028:	7179                	addi	sp,sp,-48
    8000002a:	f406                	sd	ra,40(sp)
    8000002c:	f022                	sd	s0,32(sp)
    8000002e:	1800                	addi	s0,sp,48
    80000030:	87aa                	mv	a5,a0
    80000032:	fcb43823          	sd	a1,-48(s0)
    80000036:	fcf42e23          	sw	a5,-36(s0)
  
  REG32(uart, UART_REG_TXCTRL) = UART_TXEN;
    8000003a:	640007b7          	lui	a5,0x64000
    8000003e:	07a1                	addi	a5,a5,8 # 64000008 <_prog_start-0x1bfffff8>
    80000040:	4705                	li	a4,1
    80000042:	c398                	sw	a4,0(a5)

  uint32_t mhartid = read_csr(mhartid);
    80000044:	f14027f3          	csrr	a5,mhartid
    80000048:	fef43423          	sd	a5,-24(s0)
    8000004c:	fe843783          	ld	a5,-24(s0)
    80000050:	fef42223          	sw	a5,-28(s0)

  kprintf("Hello world from core %c!!!\r\n", mhartid + 48);
    80000054:	fe442783          	lw	a5,-28(s0)
    80000058:	0307879b          	addiw	a5,a5,48
    8000005c:	2781                	sext.w	a5,a5
    8000005e:	85be                	mv	a1,a5
    80000060:	00000517          	auipc	a0,0x0
    80000064:	2e850513          	addi	a0,a0,744 # 80000348 <uart+0x8>
    80000068:	0bc000ef          	jal	ra,80000124 <kprintf>

  return 0;
    8000006c:	4781                	li	a5,0
}
    8000006e:	853e                	mv	a0,a5
    80000070:	70a2                	ld	ra,40(sp)
    80000072:	7402                	ld	s0,32(sp)
    80000074:	6145                	addi	sp,sp,48
    80000076:	8082                	ret

0000000080000078 <kputc>:
  #define UART_CTRL_ADDR _UART_CTRL_ADDR(UART_NUM)
#endif
static volatile uint32_t * const uart = (void *)(UART_CTRL_ADDR);

static inline void kputc(char c)
{
    80000078:	7179                	addi	sp,sp,-48
    8000007a:	f422                	sd	s0,40(sp)
    8000007c:	1800                	addi	s0,sp,48
    8000007e:	87aa                	mv	a5,a0
    80000080:	fcf40fa3          	sb	a5,-33(s0)
	volatile uint32_t *tx = &REG32(uart, UART_REG_TXFIFO);
    80000084:	640007b7          	lui	a5,0x64000
    80000088:	fef43423          	sd	a5,-24(s0)
#ifdef __riscv_atomic
	int32_t r;
	do {
		__asm__ __volatile__ (
    8000008c:	fe843703          	ld	a4,-24(s0)
    80000090:	fdf44783          	lbu	a5,-33(s0)
    80000094:	86be                	mv	a3,a5
    80000096:	fe843783          	ld	a5,-24(s0)
    8000009a:	40d727af          	amoor.w	a5,a3,(a4)
    8000009e:	fef42223          	sw	a5,-28(s0)
			"amoor.w %0, %2, %1\n"
			: "=r" (r), "+A" (*tx)
			: "r" (c));
	} while (r < 0);
    800000a2:	fe442783          	lw	a5,-28(s0)
    800000a6:	2781                	sext.w	a5,a5
    800000a8:	fe07c2e3          	bltz	a5,8000008c <kputc+0x14>
#else
	while ((int32_t)(*tx) < 0);
	*tx = c;
#endif
}
    800000ac:	0001                	nop
    800000ae:	0001                	nop
    800000b0:	7422                	ld	s0,40(sp)
    800000b2:	6145                	addi	sp,sp,48
    800000b4:	8082                	ret

00000000800000b6 <_kputs>:
#include <stdbool.h>

#include "kprintf.h"

static inline void _kputs(const char *s)
{
    800000b6:	7179                	addi	sp,sp,-48
    800000b8:	f406                	sd	ra,40(sp)
    800000ba:	f022                	sd	s0,32(sp)
    800000bc:	1800                	addi	s0,sp,48
    800000be:	fca43c23          	sd	a0,-40(s0)
	char c;
	for (; (c = *s) != '\0'; s++)
    800000c2:	a819                	j	800000d8 <_kputs+0x22>
		kputc(c);
    800000c4:	fef44783          	lbu	a5,-17(s0)
    800000c8:	853e                	mv	a0,a5
    800000ca:	fafff0ef          	jal	ra,80000078 <kputc>
	for (; (c = *s) != '\0'; s++)
    800000ce:	fd843783          	ld	a5,-40(s0)
    800000d2:	0785                	addi	a5,a5,1 # 64000001 <_prog_start-0x1bffffff>
    800000d4:	fcf43c23          	sd	a5,-40(s0)
    800000d8:	fd843783          	ld	a5,-40(s0)
    800000dc:	0007c783          	lbu	a5,0(a5)
    800000e0:	fef407a3          	sb	a5,-17(s0)
    800000e4:	fef44783          	lbu	a5,-17(s0)
    800000e8:	0ff7f793          	zext.b	a5,a5
    800000ec:	ffe1                	bnez	a5,800000c4 <_kputs+0xe>
}
    800000ee:	0001                	nop
    800000f0:	0001                	nop
    800000f2:	70a2                	ld	ra,40(sp)
    800000f4:	7402                	ld	s0,32(sp)
    800000f6:	6145                	addi	sp,sp,48
    800000f8:	8082                	ret

00000000800000fa <kputs>:

void kputs(const char *s)
{
    800000fa:	1101                	addi	sp,sp,-32
    800000fc:	ec06                	sd	ra,24(sp)
    800000fe:	e822                	sd	s0,16(sp)
    80000100:	1000                	addi	s0,sp,32
    80000102:	fea43423          	sd	a0,-24(s0)
	_kputs(s);
    80000106:	fe843503          	ld	a0,-24(s0)
    8000010a:	fadff0ef          	jal	ra,800000b6 <_kputs>
	kputc('\r');
    8000010e:	4535                	li	a0,13
    80000110:	f69ff0ef          	jal	ra,80000078 <kputc>
	kputc('\n');
    80000114:	4529                	li	a0,10
    80000116:	f63ff0ef          	jal	ra,80000078 <kputc>
}
    8000011a:	0001                	nop
    8000011c:	60e2                	ld	ra,24(sp)
    8000011e:	6442                	ld	s0,16(sp)
    80000120:	6105                	addi	sp,sp,32
    80000122:	8082                	ret

0000000080000124 <kprintf>:

void kprintf(const char *fmt, ...)
{
    80000124:	7175                	addi	sp,sp,-144
    80000126:	e486                	sd	ra,72(sp)
    80000128:	e0a2                	sd	s0,64(sp)
    8000012a:	0880                	addi	s0,sp,80
    8000012c:	faa43c23          	sd	a0,-72(s0)
    80000130:	e40c                	sd	a1,8(s0)
    80000132:	e810                	sd	a2,16(s0)
    80000134:	ec14                	sd	a3,24(s0)
    80000136:	f018                	sd	a4,32(s0)
    80000138:	f41c                	sd	a5,40(s0)
    8000013a:	03043823          	sd	a6,48(s0)
    8000013e:	03143c23          	sd	a7,56(s0)
	va_list vl;
	bool is_format, is_long, is_char;
	char c;

	va_start(vl, fmt);
    80000142:	04040793          	addi	a5,s0,64
    80000146:	faf43823          	sd	a5,-80(s0)
    8000014a:	fb043783          	ld	a5,-80(s0)
    8000014e:	fc878793          	addi	a5,a5,-56
    80000152:	fcf43023          	sd	a5,-64(s0)
	is_format = false;
    80000156:	fe0407a3          	sb	zero,-17(s0)
	is_long = false;
    8000015a:	fe040723          	sb	zero,-18(s0)
	is_char = false;
    8000015e:	fe0406a3          	sb	zero,-19(s0)
	while ((c = *fmt++) != '\0') {
    80000162:	a29d                	j	800002c8 <kprintf+0x1a4>
		if (is_format) {
    80000164:	fef44783          	lbu	a5,-17(s0)
    80000168:	0ff7f793          	zext.b	a5,a5
    8000016c:	12078d63          	beqz	a5,800002a6 <kprintf+0x182>
			switch (c) {
    80000170:	fd744783          	lbu	a5,-41(s0)
    80000174:	2781                	sext.w	a5,a5
    80000176:	f9d7869b          	addiw	a3,a5,-99
    8000017a:	0006871b          	sext.w	a4,a3
    8000017e:	47d5                	li	a5,21
    80000180:	10e7ec63          	bltu	a5,a4,80000298 <kprintf+0x174>
    80000184:	02069793          	slli	a5,a3,0x20
    80000188:	9381                	srli	a5,a5,0x20
    8000018a:	00279713          	slli	a4,a5,0x2
    8000018e:	00000797          	auipc	a5,0x0
    80000192:	1da78793          	addi	a5,a5,474 # 80000368 <uart+0x28>
    80000196:	97ba                	add	a5,a5,a4
    80000198:	439c                	lw	a5,0(a5)
    8000019a:	0007871b          	sext.w	a4,a5
    8000019e:	00000797          	auipc	a5,0x0
    800001a2:	1ca78793          	addi	a5,a5,458 # 80000368 <uart+0x28>
    800001a6:	97ba                	add	a5,a5,a4
    800001a8:	8782                	jr	a5
			case 'l':
				is_long = true;
    800001aa:	4785                	li	a5,1
    800001ac:	fef40723          	sb	a5,-18(s0)
				continue;
    800001b0:	aa21                	j	800002c8 <kprintf+0x1a4>
			case 'h':
				is_char = true;
    800001b2:	4785                	li	a5,1
    800001b4:	fef406a3          	sb	a5,-19(s0)
				continue;
    800001b8:	aa01                	j	800002c8 <kprintf+0x1a4>
			case 'x': {
				unsigned long n;
				long i;
				if (is_long) {
    800001ba:	fee44783          	lbu	a5,-18(s0)
    800001be:	0ff7f793          	zext.b	a5,a5
    800001c2:	cf99                	beqz	a5,800001e0 <kprintf+0xbc>
					n = va_arg(vl, unsigned long);
    800001c4:	fc043783          	ld	a5,-64(s0)
    800001c8:	00878713          	addi	a4,a5,8
    800001cc:	fce43023          	sd	a4,-64(s0)
    800001d0:	639c                	ld	a5,0(a5)
    800001d2:	fef43023          	sd	a5,-32(s0)
					i = (sizeof(unsigned long) << 3) - 4;
    800001d6:	03c00793          	li	a5,60
    800001da:	fcf43c23          	sd	a5,-40(s0)
    800001de:	a041                	j	8000025e <kprintf+0x13a>
				} else {
					n = va_arg(vl, unsigned int);
    800001e0:	fc043783          	ld	a5,-64(s0)
    800001e4:	00878713          	addi	a4,a5,8
    800001e8:	fce43023          	sd	a4,-64(s0)
    800001ec:	439c                	lw	a5,0(a5)
    800001ee:	1782                	slli	a5,a5,0x20
    800001f0:	9381                	srli	a5,a5,0x20
    800001f2:	fef43023          	sd	a5,-32(s0)
					i = is_char ? 4 : (sizeof(unsigned int) << 3) - 4;
    800001f6:	fed44783          	lbu	a5,-19(s0)
    800001fa:	0ff7f793          	zext.b	a5,a5
    800001fe:	c399                	beqz	a5,80000204 <kprintf+0xe0>
    80000200:	4791                	li	a5,4
    80000202:	a011                	j	80000206 <kprintf+0xe2>
    80000204:	47f1                	li	a5,28
    80000206:	fcf43c23          	sd	a5,-40(s0)
				}
				for (; i >= 0; i -= 4) {
    8000020a:	a891                	j	8000025e <kprintf+0x13a>
					long d;
					d = (n >> i) & 0xF;
    8000020c:	fd843783          	ld	a5,-40(s0)
    80000210:	2781                	sext.w	a5,a5
    80000212:	873e                	mv	a4,a5
    80000214:	fe043783          	ld	a5,-32(s0)
    80000218:	00e7d7b3          	srl	a5,a5,a4
    8000021c:	8bbd                	andi	a5,a5,15
    8000021e:	fcf43423          	sd	a5,-56(s0)
					kputc(d < 10 ? '0' + d : 'a' + d - 10);
    80000222:	fc843703          	ld	a4,-56(s0)
    80000226:	47a5                	li	a5,9
    80000228:	00e7cb63          	blt	a5,a4,8000023e <kprintf+0x11a>
    8000022c:	fc843783          	ld	a5,-56(s0)
    80000230:	0ff7f793          	zext.b	a5,a5
    80000234:	0307879b          	addiw	a5,a5,48
    80000238:	0ff7f793          	zext.b	a5,a5
    8000023c:	a809                	j	8000024e <kprintf+0x12a>
    8000023e:	fc843783          	ld	a5,-56(s0)
    80000242:	0ff7f793          	zext.b	a5,a5
    80000246:	0577879b          	addiw	a5,a5,87
    8000024a:	0ff7f793          	zext.b	a5,a5
    8000024e:	853e                	mv	a0,a5
    80000250:	e29ff0ef          	jal	ra,80000078 <kputc>
				for (; i >= 0; i -= 4) {
    80000254:	fd843783          	ld	a5,-40(s0)
    80000258:	17f1                	addi	a5,a5,-4
    8000025a:	fcf43c23          	sd	a5,-40(s0)
    8000025e:	fd843783          	ld	a5,-40(s0)
    80000262:	fa07d5e3          	bgez	a5,8000020c <kprintf+0xe8>
				}
				break;
    80000266:	a80d                	j	80000298 <kprintf+0x174>
			}
			case 's':
				_kputs(va_arg(vl, const char *));
    80000268:	fc043783          	ld	a5,-64(s0)
    8000026c:	00878713          	addi	a4,a5,8
    80000270:	fce43023          	sd	a4,-64(s0)
    80000274:	639c                	ld	a5,0(a5)
    80000276:	853e                	mv	a0,a5
    80000278:	e3fff0ef          	jal	ra,800000b6 <_kputs>
				break;
    8000027c:	a831                	j	80000298 <kprintf+0x174>
			case 'c':
				kputc(va_arg(vl, int));
    8000027e:	fc043783          	ld	a5,-64(s0)
    80000282:	00878713          	addi	a4,a5,8
    80000286:	fce43023          	sd	a4,-64(s0)
    8000028a:	439c                	lw	a5,0(a5)
    8000028c:	0ff7f793          	zext.b	a5,a5
    80000290:	853e                	mv	a0,a5
    80000292:	de7ff0ef          	jal	ra,80000078 <kputc>
				break;
    80000296:	0001                	nop
			}
			is_format = false;
    80000298:	fe0407a3          	sb	zero,-17(s0)
			is_long = false;
    8000029c:	fe040723          	sb	zero,-18(s0)
			is_char = false;
    800002a0:	fe0406a3          	sb	zero,-19(s0)
    800002a4:	a015                	j	800002c8 <kprintf+0x1a4>
		} else if (c == '%') {
    800002a6:	fd744783          	lbu	a5,-41(s0)
    800002aa:	0ff7f713          	zext.b	a4,a5
    800002ae:	02500793          	li	a5,37
    800002b2:	00f71663          	bne	a4,a5,800002be <kprintf+0x19a>
			is_format = true;
    800002b6:	4785                	li	a5,1
    800002b8:	fef407a3          	sb	a5,-17(s0)
    800002bc:	a031                	j	800002c8 <kprintf+0x1a4>
		} else {
			kputc(c);
    800002be:	fd744783          	lbu	a5,-41(s0)
    800002c2:	853e                	mv	a0,a5
    800002c4:	db5ff0ef          	jal	ra,80000078 <kputc>
	while ((c = *fmt++) != '\0') {
    800002c8:	fb843783          	ld	a5,-72(s0)
    800002cc:	00178713          	addi	a4,a5,1
    800002d0:	fae43c23          	sd	a4,-72(s0)
    800002d4:	0007c783          	lbu	a5,0(a5)
    800002d8:	fcf40ba3          	sb	a5,-41(s0)
    800002dc:	fd744783          	lbu	a5,-41(s0)
    800002e0:	0ff7f793          	zext.b	a5,a5
    800002e4:	e80790e3          	bnez	a5,80000164 <kprintf+0x40>
		}
	}
	va_end(vl);
}
    800002e8:	0001                	nop
    800002ea:	0001                	nop
    800002ec:	60a6                	ld	ra,72(sp)
    800002ee:	6406                	ld	s0,64(sp)
    800002f0:	6149                	addi	sp,sp,144
    800002f2:	8082                	ret
	...

Disassembly of section .srodata:

0000000080000338 <uart>:
static volatile uint32_t * const uart = (void *)(UART_CTRL_ADDR);
    80000338:	0000                	unimp
    8000033a:	6400                	ld	s0,8(s0)
    8000033c:	0000                	unimp
	...

0000000080000340 <uart>:
    80000340:	0000                	unimp
    80000342:	6400                	ld	s0,8(s0)
    80000344:	0000                	unimp
	...

Disassembly of section .rodata:

0000000080000348 <.rodata>:
    80000348:	6548                	ld	a0,136(a0)
    8000034a:	6c6c                	ld	a1,216(s0)
    8000034c:	6f77206f          	j	80073242 <uart+0x72f02>
    80000350:	6c72                	ld	s8,280(sp)
    80000352:	2064                	fld	fs1,192(s0)
    80000354:	7266                	ld	tp,120(sp)
    80000356:	63206d6f          	jal	s10,80006988 <uart+0x6648>
    8000035a:	2065726f          	jal	tp,80057560 <uart+0x57220>
    8000035e:	6325                	lui	t1,0x9
    80000360:	2121                	addiw	sp,sp,8
    80000362:	0d21                	addi	s10,s10,8
    80000364:	000a                	c.slli	zero,0x2
    80000366:	0000                	unimp
    80000368:	ff16                	sd	t0,440(sp)
    8000036a:	ffff                	.2byte	0xffff
    8000036c:	ff30                	sd	a2,120(a4)
    8000036e:	ffff                	.2byte	0xffff
    80000370:	ff30                	sd	a2,120(a4)
    80000372:	ffff                	.2byte	0xffff
    80000374:	ff30                	sd	a2,120(a4)
    80000376:	ffff                	.2byte	0xffff
    80000378:	ff30                	sd	a2,120(a4)
    8000037a:	ffff                	.2byte	0xffff
    8000037c:	fe4a                	sd	s2,312(sp)
    8000037e:	ffff                	.2byte	0xffff
    80000380:	ff30                	sd	a2,120(a4)
    80000382:	ffff                	.2byte	0xffff
    80000384:	ff30                	sd	a2,120(a4)
    80000386:	ffff                	.2byte	0xffff
    80000388:	ff30                	sd	a2,120(a4)
    8000038a:	ffff                	.2byte	0xffff
    8000038c:	fe42                	sd	a6,312(sp)
    8000038e:	ffff                	.2byte	0xffff
    80000390:	ff30                	sd	a2,120(a4)
    80000392:	ffff                	.2byte	0xffff
    80000394:	ff30                	sd	a2,120(a4)
    80000396:	ffff                	.2byte	0xffff
    80000398:	ff30                	sd	a2,120(a4)
    8000039a:	ffff                	.2byte	0xffff
    8000039c:	ff30                	sd	a2,120(a4)
    8000039e:	ffff                	.2byte	0xffff
    800003a0:	ff30                	sd	a2,120(a4)
    800003a2:	ffff                	.2byte	0xffff
    800003a4:	ff30                	sd	a2,120(a4)
    800003a6:	ffff                	.2byte	0xffff
    800003a8:	ff00                	sd	s0,56(a4)
    800003aa:	ffff                	.2byte	0xffff
    800003ac:	ff30                	sd	a2,120(a4)
    800003ae:	ffff                	.2byte	0xffff
    800003b0:	ff30                	sd	a2,120(a4)
    800003b2:	ffff                	.2byte	0xffff
    800003b4:	ff30                	sd	a2,120(a4)
    800003b6:	ffff                	.2byte	0xffff
    800003b8:	ff30                	sd	a2,120(a4)
    800003ba:	ffff                	.2byte	0xffff
    800003bc:	fe52                	sd	s4,312(sp)
    800003be:	ffff                	.2byte	0xffff

Disassembly of section .riscv.attributes:

0000000000000000 <.riscv.attributes>:
   0:	3841                	addiw	a6,a6,-16
   2:	0000                	unimp
   4:	7200                	ld	s0,32(a2)
   6:	7369                	lui	t1,0xffffa
   8:	01007663          	bgeu	zero,a6,14 <_prog_start-0x7fffffec>
   c:	002e                	c.slli	zero,0xb
   e:	0000                	unimp
  10:	1004                	addi	s1,sp,32
  12:	7205                	lui	tp,0xfffe1
  14:	3676                	fld	fa2,376(sp)
  16:	6934                	ld	a3,80(a0)
  18:	7032                	.2byte	0x7032
  1a:	5f30                	lw	a2,120(a4)
  1c:	326d                	addiw	tp,tp,-5 # fffffffffffe0ffb <uart+0xffffffff7ffe0cbb>
  1e:	3070                	fld	fa2,224(s0)
  20:	615f 7032 5f30      	.byte	0x5f, 0x61, 0x32, 0x70, 0x30, 0x5f
  26:	3266                	fld	ft4,120(sp)
  28:	3070                	fld	fa2,224(s0)
  2a:	645f 7032 5f30      	.byte	0x5f, 0x64, 0x32, 0x70, 0x30, 0x5f
  30:	30703263          	.4byte	0x30703263
  34:	0800                	addi	s0,sp,16
  36:	0a01                	addi	s4,s4,0
  38:	0b              	Address 0x0000000000000038 is out of bounds.


Disassembly of section .comment:

0000000000000000 <.comment>:
   0:	3a434347          	fmsub.d	ft6,ft6,ft4,ft7,rmm
   4:	2820                	fld	fs0,80(s0)
   6:	65653267          	.4byte	0x65653267
   a:	6535                	lui	a0,0xd
   c:	3334                	fld	fa3,96(a4)
   e:	3030                	fld	fa2,96(s0)
  10:	3831                	addiw	a6,a6,-20
  12:	2029                	.2byte	0x2029
  14:	3231                	addiw	tp,tp,-20 # ffffffffffffffec <uart+0xffffffff7ffffcac>
  16:	322e                	fld	ft4,232(sp)
  18:	302e                	fld	ft0,232(sp)
	...

Disassembly of section .debug_line:

0000000000000000 <.debug_line>:
   0:	006a                	c.slli	zero,0x1a
   2:	0000                	unimp
   4:	0005                	c.nop	1
   6:	0008                	.2byte	0x8
   8:	002a                	c.slli	zero,0xa
   a:	0000                	unimp
   c:	0101                	addi	sp,sp,0
   e:	fb01                	bnez	a4,ffffffffffffff1e <uart+0xffffffff7ffffbde>
  10:	0d0e                	slli	s10,s10,0x3
  12:	0100                	addi	s0,sp,128
  14:	0101                	addi	sp,sp,0
  16:	0001                	nop
  18:	0000                	unimp
  1a:	0001                	nop
  1c:	0100                	addi	s0,sp,128
  1e:	0101                	addi	sp,sp,0
  20:	011f 0000 0000      	.byte	0x1f, 0x01, 0x00, 0x00, 0x00, 0x00
  26:	0102                	c.slli64	sp
  28:	021f 020f 0044      	.byte	0x1f, 0x02, 0x0f, 0x02, 0x44, 0x00
  2e:	0000                	unimp
  30:	4400                	lw	s0,8(s0)
  32:	0000                	unimp
  34:	0000                	unimp
  36:	0900                	addi	s0,sp,144
  38:	0002                	c.slli64	zero
  3a:	0000                	unimp
  3c:	0080                	addi	s0,sp,64
  3e:	0000                	unimp
  40:	0300                	addi	s0,sp,384
  42:	0109                	addi	sp,sp,2
  44:	04090103          	lb	sp,64(s2)
  48:	0100                	addi	s0,sp,128
  4a:	04090203          	lb	tp,64(s2)
  4e:	0100                	addi	s0,sp,128
  50:	04090103          	lb	sp,64(s2)
  54:	0100                	addi	s0,sp,128
  56:	10090103          	lb	sp,256(s2)
  5a:	0100                	addi	s0,sp,128
  5c:	04090103          	lb	sp,64(s2)
  60:	0100                	addi	s0,sp,128
  62:	04090203          	lb	tp,64(s2)
  66:	0100                	addi	s0,sp,128
  68:	0409                	addi	s0,s0,2
  6a:	0000                	unimp
  6c:	0101                	addi	sp,sp,0
  6e:	0095                	addi	ra,ra,5
  70:	0000                	unimp
  72:	0005                	c.nop	1
  74:	0008                	.2byte	0x8
  76:	0041                	c.nop	16
  78:	0000                	unimp
  7a:	0101                	addi	sp,sp,0
  7c:	fb01                	bnez	a4,ffffffffffffff8c <uart+0xffffffff7ffffc4c>
  7e:	0d0e                	slli	s10,s10,0x3
  80:	0100                	addi	s0,sp,128
  82:	0101                	addi	sp,sp,0
  84:	0001                	nop
  86:	0000                	unimp
  88:	0001                	nop
  8a:	0100                	addi	s0,sp,128
  8c:	0101                	addi	sp,sp,0
  8e:	031f 0000 0000      	.byte	0x1f, 0x03, 0x00, 0x00, 0x00, 0x00
  94:	00000053          	fadd.s	ft0,ft0,ft0,rne
  98:	00ba                	slli	ra,ra,0xe
  9a:	0000                	unimp
  9c:	0102                	c.slli64	sp
  9e:	021f 050f 004b      	.byte	0x1f, 0x02, 0x0f, 0x05, 0x4b, 0x00
  a4:	0000                	unimp
  a6:	4b00                	lw	s0,16(a4)
  a8:	0000                	unimp
  aa:	0000                	unimp
  ac:	011d                	addi	sp,sp,7
  ae:	0000                	unimp
  b0:	2e01                	sext.w	t3,t3
  b2:	0001                	nop
  b4:	0200                	addi	s0,sp,256
  b6:	0138                	addi	a4,sp,136
  b8:	0000                	unimp
  ba:	0500                	addi	s0,sp,640
  bc:	0020                	addi	s0,sp,8
  be:	0209                	addi	tp,tp,2 # 2 <_prog_start-0x7ffffffe>
  c0:	0028                	addi	a0,sp,8
  c2:	8000                	.2byte	0x8000
  c4:	0000                	unimp
  c6:	0000                	unimp
  c8:	051a                	slli	a0,a0,0x6
  ca:	09020303          	lb	t1,144(tp) # 90 <_prog_start-0x7fffff70>
  ce:	0012                	c.slli	zero,0x4
  d0:	0501                	addi	a0,a0,0 # d000 <_prog_start-0x7fff3000>
  d2:	0320                	addi	s0,sp,392
  d4:	0900                	addi	s0,sp,144
  d6:	0006                	c.slli	zero,0x1
  d8:	0501                	addi	a0,a0,0
  da:	0316                	slli	t1,t1,0x5
  dc:	0902                	c.slli64	s2
  de:	0004                	.2byte	0x4
  e0:	0501                	addi	a0,a0,0
  e2:	030c                	addi	a1,sp,384
  e4:	0900                	addi	s0,sp,144
  e6:	000c                	.2byte	0xc
  e8:	0501                	addi	a0,a0,0
  ea:	09020303          	lb	t1,144(tp) # 90 <_prog_start-0x7fffff70>
  ee:	0004                	.2byte	0x4
  f0:	0501                	addi	a0,a0,0
  f2:	030a                	slli	t1,t1,0x2
  f4:	0902                	c.slli64	s2
  f6:	0018                	.2byte	0x18
  f8:	0501                	addi	a0,a0,0
  fa:	0301                	addi	t1,t1,0 # ffffffffffffa000 <uart+0xffffffff7fff9cc0>
  fc:	0901                	addi	s2,s2,0
  fe:	0002                	c.slli64	zero
 100:	0901                	addi	s2,s2,0
 102:	000a                	c.slli	zero,0x2
 104:	0100                	addi	s0,sp,128
 106:	a401                	j	306 <_prog_start-0x7ffffcfa>
 108:	0002                	c.slli64	zero
 10a:	0500                	addi	s0,sp,640
 10c:	0800                	addi	s0,sp,16
 10e:	4a00                	lw	s0,16(a2)
 110:	0000                	unimp
 112:	0100                	addi	s0,sp,128
 114:	0101                	addi	sp,sp,0
 116:	000d0efb          	.4byte	0xd0efb
 11a:	0101                	addi	sp,sp,0
 11c:	0101                	addi	sp,sp,0
 11e:	0000                	unimp
 120:	0100                	addi	s0,sp,128
 122:	0000                	unimp
 124:	0101                	addi	sp,sp,0
 126:	1f01                	addi	t5,t5,-32
 128:	0004                	.2byte	0x4
 12a:	0000                	unimp
 12c:	4c00                	lw	s0,24(s0)
 12e:	0001                	nop
 130:	5300                	lw	s0,32(a4)
 132:	0000                	unimp
 134:	ba00                	fsd	fs0,48(a2)
 136:	0000                	unimp
 138:	0200                	addi	s0,sp,256
 13a:	1f01                	addi	t5,t5,-32
 13c:	0f02                	c.slli64	t5
 13e:	4206                	lw	tp,64(sp)
 140:	0001                	nop
 142:	0000                	unimp
 144:	0138                	addi	a4,sp,136
 146:	0000                	unimp
 148:	4200                	lw	s0,0(a2)
 14a:	0001                	nop
 14c:	0000                	unimp
 14e:	01ba                	slli	gp,gp,0xe
 150:	0000                	unimp
 152:	1d01                	addi	s10,s10,-32
 154:	0001                	nop
 156:	0200                	addi	s0,sp,256
 158:	012e                	slli	sp,sp,0xb
 15a:	0000                	unimp
 15c:	00010503          	lb	a0,0(sp)
 160:	0209                	addi	tp,tp,2 # 2 <_prog_start-0x7ffffffe>
 162:	0078                	addi	a4,sp,12
 164:	8000                	.2byte	0x8000
 166:	0000                	unimp
 168:	0000                	unimp
 16a:	05011503          	lh	a0,80(sp)
 16e:	0315                	addi	t1,t1,5
 170:	0901                	addi	s2,s2,0
 172:	000c                	.2byte	0xc
 174:	0501                	addi	a0,a0,0
 176:	04020003          	lb	zero,64(tp) # 40 <_prog_start-0x7fffffc0>
 17a:	0301                	addi	t1,t1,0
 17c:	0904                	addi	s1,sp,144
 17e:	0008                	.2byte	0x8
 180:	0501                	addi	a0,a0,0
 182:	000d                	c.nop	3
 184:	0402                	c.slli64	s0
 186:	0301                	addi	t1,t1,0
 188:	0904                	addi	s1,sp,144
 18a:	0016                	c.slli	zero,0x5
 18c:	0501                	addi	a0,a0,0
 18e:	0301                	addi	t1,t1,0
 190:	0905                	addi	s2,s2,1
 192:	000a                	c.slli	zero,0x2
 194:	0401                	addi	s0,s0,0
 196:	0302                	c.slli64	t1
 198:	0965                	addi	s2,s2,25
 19a:	000a                	c.slli	zero,0x2
 19c:	0501                	addi	a0,a0,0
 19e:	0302                	c.slli64	t1
 1a0:	0902                	c.slli64	s2
 1a2:	000c                	.2byte	0xc
 1a4:	0501                	addi	a0,a0,0
 1a6:	04020003          	lb	zero,64(tp) # 40 <_prog_start-0x7fffffc0>
 1aa:	0302                	c.slli64	t1
 1ac:	0901                	addi	s2,s2,0
 1ae:	0002                	c.slli64	zero
 1b0:	0501                	addi	a0,a0,0
 1b2:	001c                	.2byte	0x1c
 1b4:	0402                	c.slli64	s0
 1b6:	0302                	c.slli64	t1
 1b8:	097f                	.2byte	0x97f
 1ba:	000a                	c.slli	zero,0x2
 1bc:	0501                	addi	a0,a0,0
 1be:	000c                	.2byte	0xc
 1c0:	0402                	c.slli64	s0
 1c2:	0301                	addi	t1,t1,0
 1c4:	0900                	addi	s0,sp,144
 1c6:	000a                	c.slli	zero,0x2
 1c8:	0501                	addi	a0,a0,0
 1ca:	0012                	c.slli	zero,0x4
 1cc:	0402                	c.slli64	s0
 1ce:	0301                	addi	t1,t1,0
 1d0:	0900                	addi	s0,sp,144
 1d2:	000c                	.2byte	0xc
 1d4:	0501                	addi	a0,a0,0
 1d6:	0301                	addi	t1,t1,0
 1d8:	0902                	c.slli64	s2
 1da:	000a                	c.slli	zero,0x2
 1dc:	0301                	addi	t1,t1,0
 1de:	000c0903          	lb	s2,0(s8)
 1e2:	0501                	addi	a0,a0,0
 1e4:	0302                	c.slli64	t1
 1e6:	0901                	addi	s2,s2,0
 1e8:	000c                	.2byte	0xc
 1ea:	0301                	addi	t1,t1,0
 1ec:	0901                	addi	s2,s2,0
 1ee:	0008                	.2byte	0x8
 1f0:	0301                	addi	t1,t1,0
 1f2:	0901                	addi	s2,s2,0
 1f4:	0006                	c.slli	zero,0x1
 1f6:	0501                	addi	a0,a0,0
 1f8:	0301                	addi	t1,t1,0
 1fa:	0901                	addi	s2,s2,0
 1fc:	0006                	c.slli	zero,0x1
 1fe:	0301                	addi	t1,t1,0
 200:	000a0903          	lb	s2,0(s4)
 204:	0501                	addi	a0,a0,0
 206:	0302                	c.slli64	t1
 208:	0905                	addi	s2,s2,1
 20a:	001e                	c.slli	zero,0x7
 20c:	0501                	addi	a0,a0,0
 20e:	030c                	addi	a1,sp,384
 210:	0901                	addi	s2,s2,0
 212:	0014                	.2byte	0x14
 214:	0501                	addi	a0,a0,0
 216:	030a                	slli	t1,t1,0x2
 218:	0901                	addi	s2,s2,0
 21a:	0004                	.2byte	0x4
 21c:	0301                	addi	t1,t1,0
 21e:	0901                	addi	s2,s2,0
 220:	0004                	.2byte	0x4
 222:	0501                	addi	a0,a0,0
 224:	0308                	addi	a0,sp,384
 226:	0901                	addi	s2,s2,0
 228:	0004                	.2byte	0x4
 22a:	0501                	addi	a0,a0,0
 22c:	0306                	slli	t1,t1,0x1
 22e:	0901                	addi	s2,s2,0
 230:	0002                	c.slli64	zero
 232:	0501                	addi	a0,a0,0
 234:	0304                	addi	s1,sp,384
 236:	0901                	addi	s2,s2,0
 238:	000c                	.2byte	0xc
 23a:	0501                	addi	a0,a0,0
 23c:	000d                	c.nop	3
 23e:	0402                	c.slli64	s0
 240:	0302                	c.slli64	t1
 242:	0902                	c.slli64	s2
 244:	003a                	c.slli	zero,0xe
 246:	0501                	addi	a0,a0,0
 248:	0005                	c.nop	1
 24a:	0402                	c.slli64	s0
 24c:	0302                	c.slli64	t1
 24e:	0901                	addi	s2,s2,0
 250:	0006                	c.slli	zero,0x1
 252:	0501                	addi	a0,a0,0
 254:	000d                	c.nop	3
 256:	0402                	c.slli64	s0
 258:	0301                	addi	t1,t1,0
 25a:	0902                	c.slli64	s2
 25c:	0002                	c.slli64	zero
 25e:	0501                	addi	a0,a0,0
 260:	0005                	c.nop	1
 262:	0402                	c.slli64	s0
 264:	0301                	addi	t1,t1,0
 266:	0901                	addi	s2,s2,0
 268:	0006                	c.slli	zero,0x1
 26a:	0501                	addi	a0,a0,0
 26c:	0308                	addi	a0,sp,384
 26e:	0904                	addi	s1,sp,144
 270:	0002                	c.slli64	zero
 272:	0301                	addi	t1,t1,0
 274:	0901                	addi	s2,s2,0
 276:	000a                	c.slli	zero,0x2
 278:	0301                	addi	t1,t1,0
 27a:	0901                	addi	s2,s2,0
 27c:	0012                	c.slli	zero,0x4
 27e:	0501                	addi	a0,a0,0
 280:	030a                	slli	t1,t1,0x2
 282:	0902                	c.slli64	s2
 284:	000a                	c.slli	zero,0x2
 286:	0501                	addi	a0,a0,0
 288:	0308                	addi	a0,sp,384
 28a:	0900                	addi	s0,sp,144
 28c:	000e                	c.slli	zero,0x3
 28e:	0501                	addi	a0,a0,0
 290:	0316                	slli	t1,t1,0x5
 292:	0901                	addi	s2,s2,0
 294:	0008                	.2byte	0x8
 296:	0001                	nop
 298:	0402                	c.slli64	s0
 29a:	0601                	addi	a2,a2,0
 29c:	0a090003          	lb	zero,160(s2)
 2a0:	0100                	addi	s0,sp,128
 2a2:	0200                	addi	s0,sp,256
 2a4:	0204                	addi	s1,sp,256
 2a6:	04090003          	lb	zero,64(s2)
 2aa:	0100                	addi	s0,sp,128
 2ac:	0805                	addi	a6,a6,1
 2ae:	0200                	addi	s0,sp,256
 2b0:	0404                	addi	s1,sp,512
 2b2:	0306                	slli	t1,t1,0x1
 2b4:	0900                	addi	s0,sp,144
 2b6:	0002                	c.slli64	zero
 2b8:	0501                	addi	a0,a0,0
 2ba:	0005                	c.nop	1
 2bc:	0402                	c.slli64	s0
 2be:	0304                	addi	s1,sp,384
 2c0:	0902                	c.slli64	s2
 2c2:	0004                	.2byte	0x4
 2c4:	0501                	addi	a0,a0,0
 2c6:	030d                	addi	t1,t1,3
 2c8:	0902                	c.slli64	s2
 2ca:	0002                	c.slli64	zero
 2cc:	0501                	addi	a0,a0,0
 2ce:	0308                	addi	a0,sp,384
 2d0:	0900                	addi	s0,sp,144
 2d2:	0010                	.2byte	0x10
 2d4:	0501                	addi	a0,a0,0
 2d6:	0306                	slli	t1,t1,0x1
 2d8:	0901                	addi	s2,s2,0
 2da:	0006                	c.slli	zero,0x1
 2dc:	0501                	addi	a0,a0,0
 2de:	0019                	c.nop	6
 2e0:	0402                	c.slli64	s0
 2e2:	0301                	addi	t1,t1,0
 2e4:	0900                	addi	s0,sp,144
 2e6:	000a                	c.slli	zero,0x2
 2e8:	0501                	addi	a0,a0,0
 2ea:	0006                	c.slli	zero,0x1
 2ec:	0402                	c.slli64	s0
 2ee:	0301                	addi	t1,t1,0
 2f0:	0900                	addi	s0,sp,144
 2f2:	0008                	.2byte	0x8
 2f4:	0501                	addi	a0,a0,0
 2f6:	04020027          	.4byte	0x4020027
 2fa:	0302                	c.slli64	t1
 2fc:	0900                	addi	s0,sp,144
 2fe:	000a                	c.slli	zero,0x2
 300:	0501                	addi	a0,a0,0
 302:	0006                	c.slli	zero,0x1
 304:	0402                	c.slli64	s0
 306:	0302                	c.slli64	t1
 308:	0900                	addi	s0,sp,144
 30a:	0008                	.2byte	0x8
 30c:	0001                	nop
 30e:	0402                	c.slli64	s0
 310:	0604                	addi	s1,sp,768
 312:	08090003          	lb	zero,128(s2)
 316:	0100                	addi	s0,sp,128
 318:	1605                	addi	a2,a2,-31
 31a:	0200                	addi	s0,sp,256
 31c:	0404                	addi	s1,sp,512
 31e:	0306                	slli	t1,t1,0x1
 320:	097d                	addi	s2,s2,31
 322:	0006                	c.slli	zero,0x1
 324:	0501                	addi	a0,a0,0
 326:	000e                	c.slli	zero,0x3
 328:	0402                	c.slli64	s0
 32a:	0301                	addi	t1,t1,0
 32c:	0900                	addi	s0,sp,144
 32e:	000a                	c.slli	zero,0x2
 330:	0501                	addi	a0,a0,0
 332:	0305                	addi	t1,t1,1
 334:	0905                	addi	s2,s2,1
 336:	0008                	.2byte	0x8
 338:	0301                	addi	t1,t1,0
 33a:	00020903          	lb	s2,0(tp) # 0 <_prog_start-0x80000000>
 33e:	0301                	addi	t1,t1,0
 340:	0901                	addi	s2,s2,0
 342:	0014                	.2byte	0x14
 344:	0501                	addi	a0,a0,0
 346:	0902030b          	.4byte	0x902030b
 34a:	0002                	c.slli64	zero
 34c:	0501                	addi	a0,a0,0
 34e:	0305                	addi	t1,t1,1
 350:	0900                	addi	s0,sp,144
 352:	000e                	c.slli	zero,0x3
 354:	0301                	addi	t1,t1,0
 356:	0901                	addi	s2,s2,0
 358:	000a                	c.slli	zero,0x2
 35a:	0501                	addi	a0,a0,0
 35c:	030e                	slli	t1,t1,0x3
 35e:	0902                	c.slli64	s2
 360:	0002                	c.slli64	zero
 362:	0501                	addi	a0,a0,0
 364:	030c                	addi	a1,sp,384
 366:	0901                	addi	s2,s2,0
 368:	0004                	.2byte	0x4
 36a:	0301                	addi	t1,t1,0
 36c:	0901                	addi	s2,s2,0
 36e:	0004                	.2byte	0x4
 370:	0501                	addi	a0,a0,0
 372:	030d                	addi	t1,t1,3
 374:	0901                	addi	s2,s2,0
 376:	0006                	c.slli	zero,0x1
 378:	0501                	addi	a0,a0,0
 37a:	030e                	slli	t1,t1,0x3
 37c:	0901                	addi	s2,s2,0
 37e:	0010                	.2byte	0x10
 380:	0501                	addi	a0,a0,0
 382:	0304                	addi	s1,sp,384
 384:	0902                	c.slli64	s2
 386:	0008                	.2byte	0x8
 388:	0501                	addi	a0,a0,0
 38a:	0312                	slli	t1,t1,0x4
 38c:	0959                	addi	s2,s2,22
 38e:	000a                	c.slli	zero,0x2
 390:	0501                	addi	a0,a0,0
 392:	030c                	addi	a1,sp,384
 394:	0900                	addi	s0,sp,144
 396:	000c                	.2byte	0xc
 398:	0501                	addi	a0,a0,0
 39a:	0316                	slli	t1,t1,0x5
 39c:	0900                	addi	s0,sp,144
 39e:	0008                	.2byte	0x8
 3a0:	0501                	addi	a0,a0,0
 3a2:	0301                	addi	t1,t1,0
 3a4:	000c092b          	.4byte	0xc092b
 3a8:	0901                	addi	s2,s2,0
 3aa:	000c                	.2byte	0xc
 3ac:	0100                	addi	s0,sp,128
 3ae:	01              	Address 0x00000000000003ae is out of bounds.


Disassembly of section .debug_line_str:

0000000000000000 <.debug_line_str>:
   0:	6d6f682f          	.4byte	0x6d6f682f
   4:	2f65                	addiw	t5,t5,25
   6:	6962                	ld	s2,24(sp)
   8:	686e                	ld	a6,216(sp)
   a:	7565696b          	.4byte	0x7565696b
   e:	6f64                	ld	s1,216(a4)
  10:	726f572f          	.4byte	0x726f572f
  14:	6170736b          	.4byte	0x6170736b
  18:	742f6563          	bltu	t5,sp,762 <_prog_start-0x7ffff89e>
  1c:	706d                	c.lui	zero,0xffffb
  1e:	706d742f          	.4byte	0x706d742f
  22:	6e614d2f          	.4byte	0x6e614d2f
  26:	4379                	li	t1,30
  28:	2f65726f          	jal	tp,5731e <_prog_start-0x7ffa8ce2>
  2c:	7266                	ld	tp,120(sp)
  2e:	6d61                	lui	s10,0x18
  30:	7765                	lui	a4,0xffff9
  32:	2f6b726f          	jal	tp,b7328 <_prog_start-0x7ff48cd8>
  36:	682f7773          	csrrci	a4,0x682,30
  3a:	6c65                	lui	s8,0x19
  3c:	6f6c                	ld	a1,216(a4)
  3e:	6c726f57          	.4byte	0x6c726f57
  42:	0064                	addi	s1,sp,12
  44:	30747263          	bgeu	s0,t2,348 <_prog_start-0x7ffffcb8>
  48:	532e                	lw	t1,232(sp)
  4a:	6800                	ld	s0,16(s0)
  4c:	6c65                	lui	s8,0x19
  4e:	6f6c                	ld	a1,216(a4)
  50:	632e                	ld	t1,200(sp)
  52:	2f00                	fld	fs0,24(a4)
  54:	6f68                	ld	a0,216(a4)
  56:	656d                	lui	a0,0x1b
  58:	6e69622f          	.4byte	0x6e69622f
  5c:	6b68                	ld	a0,208(a4)
  5e:	6569                	lui	a0,0x1a
  60:	6475                	lui	s0,0x1d
  62:	6f572f6f          	jal	t5,72f56 <_prog_start-0x7ff8d0aa>
  66:	6b72                	ld	s6,280(sp)
  68:	63617073          	csrci	0x636,2
  6c:	2f65                	addiw	t5,t5,25
  6e:	6d74                	ld	a3,216(a0)
  70:	2f70                	fld	fa2,216(a4)
  72:	6d74                	ld	a3,216(a0)
  74:	2f70                	fld	fa2,216(a4)
  76:	614d                	addi	sp,sp,176
  78:	796e                	ld	s2,248(sp)
  7a:	65726f43          	.4byte	0x65726f43
  7e:	6f632e2f          	.4byte	0x6f632e2f
  82:	646e                	ld	s0,216(sp)
  84:	2d61                	addiw	s10,s10,24 # 18018 <_prog_start-0x7ffe7fe8>
  86:	6e65                	lui	t3,0x19
  88:	2f76                	fld	ft10,344(sp)
  8a:	6972                	ld	s2,280(sp)
  8c:	2d766373          	csrrsi	t1,0x2d7,12
  90:	6f74                	ld	a3,216(a4)
  92:	2f736c6f          	jal	s8,36b88 <_prog_start-0x7ffc9478>
  96:	6972                	ld	s2,280(sp)
  98:	36766373          	csrrsi	t1,0x367,12
  9c:	2d34                	fld	fa3,88(a0)
  9e:	6e75                	lui	t3,0x1d
  a0:	776f6e6b          	.4byte	0x776f6e6b
  a4:	2d6e                	fld	fs10,216(sp)
  a6:	6c65                	lui	s8,0x19
  a8:	2f66                	fld	ft10,88(sp)
  aa:	6e69                	lui	t3,0x1a
  ac:	64756c63          	bltu	a0,t2,704 <_prog_start-0x7ffff8fc>
  b0:	2f65                	addiw	t5,t5,25
  b2:	616d                	addi	sp,sp,240
  b4:	6e696863          	bltu	s2,t1,7a4 <_prog_start-0x7ffff85c>
  b8:	0065                	c.nop	25
  ba:	6d6f682f          	.4byte	0x6d6f682f
  be:	2f65                	addiw	t5,t5,25
  c0:	6962                	ld	s2,24(sp)
  c2:	686e                	ld	a6,216(sp)
  c4:	7565696b          	.4byte	0x7565696b
  c8:	6f64                	ld	s1,216(a4)
  ca:	726f572f          	.4byte	0x726f572f
  ce:	6170736b          	.4byte	0x6170736b
  d2:	742f6563          	bltu	t5,sp,81c <_prog_start-0x7ffff7e4>
  d6:	706d                	c.lui	zero,0xffffb
  d8:	706d742f          	.4byte	0x706d742f
  dc:	6e614d2f          	.4byte	0x6e614d2f
  e0:	4379                	li	t1,30
  e2:	2f65726f          	jal	tp,573d8 <_prog_start-0x7ffa8c28>
  e6:	632e                	ld	t1,200(sp)
  e8:	61646e6f          	jal	t3,466fe <_prog_start-0x7ffb9902>
  ec:	652d                	lui	a0,0xb
  ee:	766e                	ld	a2,248(sp)
  f0:	7369722f          	.4byte	0x7369722f
  f4:	742d7663          	bgeu	s10,sp,840 <_prog_start-0x7ffff7c0>
  f8:	736c6f6f          	jal	t5,c682e <_prog_start-0x7ff397d2>
  fc:	7369722f          	.4byte	0x7369722f
 100:	34367663          	bgeu	a2,gp,44c <_prog_start-0x7ffffbb4>
 104:	752d                	lui	a0,0xfffeb
 106:	6b6e                	ld	s6,216(sp)
 108:	6f6e                	ld	t5,216(sp)
 10a:	652d6e77          	.4byte	0x652d6e77
 10e:	666c                	ld	a1,200(a2)
 110:	636e692f          	.4byte	0x636e692f
 114:	756c                	ld	a1,232(a0)
 116:	6564                	ld	s1,200(a0)
 118:	7379732f          	.4byte	0x7379732f
 11c:	5f00                	lw	s0,56(a4)
 11e:	6564                	ld	s1,200(a0)
 120:	6166                	ld	sp,88(sp)
 122:	6c75                	lui	s8,0x1d
 124:	5f74                	lw	a3,124(a4)
 126:	7974                	ld	a3,240(a0)
 128:	6570                	ld	a2,200(a0)
 12a:	00682e73          	csrrs	t3,0x6,a6
 12e:	735f 6474 6e69      	.byte	0x5f, 0x73, 0x74, 0x64, 0x69, 0x6e
 134:	2e74                	fld	fa3,216(a2)
 136:	0068                	addi	a0,sp,12
 138:	6972706b          	.4byte	0x6972706b
 13c:	746e                	ld	s0,248(sp)
 13e:	2e66                	fld	ft8,88(sp)
 140:	0068                	addi	a0,sp,12
 142:	6972706b          	.4byte	0x6972706b
 146:	746e                	ld	s0,248(sp)
 148:	2e66                	fld	ft8,88(sp)
 14a:	682f0063          	beq	t5,sp,7ca <_prog_start-0x7ffff836>
 14e:	2f656d6f          	jal	s10,56444 <_prog_start-0x7ffa9bbc>
 152:	6962                	ld	s2,24(sp)
 154:	686e                	ld	a6,216(sp)
 156:	7565696b          	.4byte	0x7565696b
 15a:	6f64                	ld	s1,216(a4)
 15c:	726f572f          	.4byte	0x726f572f
 160:	6170736b          	.4byte	0x6170736b
 164:	742f6563          	bltu	t5,sp,8ae <_prog_start-0x7ffff752>
 168:	706d                	c.lui	zero,0xffffb
 16a:	706d742f          	.4byte	0x706d742f
 16e:	6e614d2f          	.4byte	0x6e614d2f
 172:	4379                	li	t1,30
 174:	2f65726f          	jal	tp,5746a <_prog_start-0x7ffa8b96>
 178:	632e                	ld	t1,200(sp)
 17a:	61646e6f          	jal	t3,46790 <_prog_start-0x7ffb9870>
 17e:	652d                	lui	a0,0xb
 180:	766e                	ld	a2,248(sp)
 182:	7369722f          	.4byte	0x7369722f
 186:	742d7663          	bgeu	s10,sp,8d2 <_prog_start-0x7ffff72e>
 18a:	736c6f6f          	jal	t5,c68c0 <_prog_start-0x7ff39740>
 18e:	62696c2f          	.4byte	0x62696c2f
 192:	6363672f          	.4byte	0x6363672f
 196:	7369722f          	.4byte	0x7369722f
 19a:	34367663          	bgeu	a2,gp,4e6 <_prog_start-0x7ffffb1a>
 19e:	752d                	lui	a0,0xfffeb
 1a0:	6b6e                	ld	s6,216(sp)
 1a2:	6f6e                	ld	t5,216(sp)
 1a4:	652d6e77          	.4byte	0x652d6e77
 1a8:	666c                	ld	a1,200(a2)
 1aa:	2e32312f          	.4byte	0x2e32312f
 1ae:	2e32                	fld	ft8,264(sp)
 1b0:	2f30                	fld	fa2,88(a4)
 1b2:	6e69                	lui	t3,0x1a
 1b4:	64756c63          	bltu	a0,t2,80c <_prog_start-0x7ffff7f4>
 1b8:	0065                	c.nop	25
 1ba:	61647473          	csrrci	s0,0x616,8
 1be:	6772                	ld	a4,280(sp)
 1c0:	682e                	ld	a6,200(sp)
	...

Disassembly of section .debug_info:

0000000000000000 <.debug_info>:
   0:	0024                	addi	s1,sp,8
   2:	0000                	unimp
   4:	0005                	c.nop	1
   6:	0801                	addi	a6,a6,0
   8:	0000                	unimp
   a:	0000                	unimp
   c:	0001                	nop
   e:	0000                	unimp
  10:	0000                	unimp
  12:	0000                	unimp
  14:	0080                	addi	s0,sp,64
  16:	0000                	unimp
  18:	2c00                	fld	fs0,24(s0)
  1a:	0000                	unimp
  1c:	0000                	unimp
  1e:	00000007          	.4byte	0x7
  22:	0000004b          	fnmsub.s	ft0,ft0,ft0,ft0,rne
  26:	8001                	c.srli64	s0
  28:	0000013f 08010005 	.8byte	0x80100050000013f
  30:	0014                	.2byte	0x14
  32:	0000                	unimp
  34:	9206                	add	tp,tp,ra
  36:	0000                	unimp
  38:	1d00                	addi	s0,sp,688
  3a:	0000004b          	fnmsub.s	ft0,ft0,ft0,ft0,rne
  3e:	0000                	unimp
  40:	0000                	unimp
  42:	0028                	addi	a0,sp,8
  44:	8000                	.2byte	0x8000
  46:	0000                	unimp
  48:	0000                	unimp
  4a:	0050                	addi	a2,sp,4
  4c:	0000                	unimp
  4e:	0000                	unimp
  50:	0000                	unimp
  52:	006e                	c.slli	zero,0x1b
  54:	0000                	unimp
  56:	0101                	addi	sp,sp,0
  58:	6106                	ld	sp,64(sp)
  5a:	0000                	unimp
  5c:	0100                	addi	s0,sp,128
  5e:	0801                	addi	a6,a6,0
  60:	005f 0000 0201      	.byte	0x5f, 0x00, 0x00, 0x00, 0x01, 0x02
  66:	1f05                	addi	t5,t5,-31
  68:	0001                	nop
  6a:	0100                	addi	s0,sp,128
  6c:	0702                	c.slli64	a4
  6e:	007f                	.2byte	0x7f
  70:	0000                	unimp
  72:	69050407          	.4byte	0x69050407
  76:	746e                	ld	s0,248(sp)
  78:	0400                	addi	s0,sp,512
  7a:	010a                	slli	sp,sp,0x2
  7c:	0000                	unimp
  7e:	4f02                	lw	t5,0(sp)
  80:	5d19                	li	s10,-26
  82:	0000                	unimp
  84:	0100                	addi	s0,sp,128
  86:	0704                	addi	s1,sp,896
  88:	0072                	c.slli	zero,0x1c
  8a:	0000                	unimp
  8c:	0801                	addi	a6,a6,0
  8e:	3405                	addiw	s0,s0,-31 # 1cfe1 <_prog_start-0x7ffe301f>
  90:	0001                	nop
  92:	0100                	addi	s0,sp,128
  94:	0708                	addi	a0,sp,896
  96:	006d                	c.nop	27
  98:	0000                	unimp
  9a:	0c04                	addi	s1,sp,528
  9c:	0001                	nop
  9e:	0300                	addi	s0,sp,384
  a0:	1430                	addi	a2,sp,552
  a2:	0051                	c.nop	20
  a4:	0000                	unimp
  a6:	7208                	ld	a0,32(a2)
  a8:	0000                	unimp
  aa:	0300                	addi	s0,sp,384
  ac:	0000012f          	.4byte	0x12f
  b0:	1304                	addi	s1,sp,416
  b2:	9e22                	add	t3,t3,s0
  b4:	0000                	unimp
  b6:	0900                	addi	s0,sp,144
  b8:	00033803          	ld	a6,0(t1)
  bc:	0080                	addi	s0,sp,64
  be:	0000                	unimp
  c0:	0200                	addi	s0,sp,256
  c2:	007e                	c.slli	zero,0x1f
  c4:	0000                	unimp
  c6:	9905                	andi	a0,a0,-31
  c8:	0000                	unimp
  ca:	0900                	addi	s0,sp,144
  cc:	00000057          	.4byte	0x57
  d0:	2704                	fld	fs1,8(a4)
  d2:	b60d                	j	fffffffffffffbf4 <uart+0xffffffff7ffff8b4>
  d4:	0000                	unimp
  d6:	0a00                	addi	s0,sp,272
  d8:	00b6                	slli	ra,ra,0xd
  da:	0000                	unimp
  dc:	c202000b          	.4byte	0xc202000b
  e0:	0000                	unimp
  e2:	0100                	addi	s0,sp,128
  e4:	0801                	addi	a6,a6,0
  e6:	0068                	addi	a0,sp,12
  e8:	0000                	unimp
  ea:	bb05                	j	fffffffffffffe1a <uart+0xffffffff7ffffada>
  ec:	0000                	unimp
  ee:	0c00                	addi	s0,sp,528
  f0:	0115                	addi	sp,sp,5
  f2:	0000                	unimp
  f4:	0901                	addi	s2,s2,0
  f6:	4a05                	li	s4,1
  f8:	0000                	unimp
  fa:	2800                	fld	fs0,16(s0)
  fc:	0000                	unimp
  fe:	0080                	addi	s0,sp,64
 100:	0000                	unimp
 102:	5000                	lw	s0,32(s0)
 104:	0000                	unimp
 106:	0000                	unimp
 108:	0000                	unimp
 10a:	0100                	addi	s0,sp,128
 10c:	389c                	fld	fa5,48(s1)
 10e:	0001                	nop
 110:	0d00                	addi	s0,sp,656
 112:	011a                	slli	sp,sp,0x6
 114:	0000                	unimp
 116:	0901                	addi	s2,s2,0
 118:	4a0e                	lw	s4,192(sp)
 11a:	0000                	unimp
 11c:	0200                	addi	s0,sp,256
 11e:	5c91                	li	s9,-28
 120:	610e                	ld	sp,192(sp)
 122:	7672                	ld	a2,312(sp)
 124:	0100                	addi	s0,sp,128
 126:	1b09                	addi	s6,s6,-30
 128:	0138                	addi	a4,sp,136
 12a:	0000                	unimp
 12c:	9102                	jalr	sp
 12e:	0350                	addi	a2,sp,388
 130:	013d                	addi	sp,sp,15
 132:	0000                	unimp
 134:	0d01                	addi	s10,s10,0
 136:	720c                	ld	a1,32(a2)
 138:	0000                	unimp
 13a:	0200                	addi	s0,sp,256
 13c:	6491                	lui	s1,0x4
 13e:	0000440f          	.4byte	0x440f
 142:	0080                	addi	s0,sp,64
 144:	0000                	unimp
 146:	0c00                	addi	s0,sp,528
 148:	0000                	unimp
 14a:	0000                	unimp
 14c:	0000                	unimp
 14e:	0300                	addi	s0,sp,384
 150:	0129                	addi	sp,sp,10
 152:	0000                	unimp
 154:	0d01                	addi	s10,s10,0
 156:	6b16                	ld	s6,320(sp)
 158:	0000                	unimp
 15a:	0200                	addi	s0,sp,256
 15c:	6891                	lui	a7,0x4
 15e:	0000                	unimp
 160:	3d02                	fld	fs10,32(sp)
 162:	0001                	nop
 164:	0200                	addi	s0,sp,256
 166:	000000bb          	addw	ra,zero,zero
 16a:	5d00                	lw	s0,56(a0)
 16c:	0002                	c.slli64	zero
 16e:	0500                	addi	s0,sp,640
 170:	0100                	addi	s0,sp,128
 172:	df08                	sw	a0,56(a4)
 174:	0000                	unimp
 176:	0a00                	addi	s0,sp,272
 178:	0092                	slli	ra,ra,0x4
 17a:	0000                	unimp
 17c:	421d                	li	tp,7
 17e:	0001                	nop
 180:	0000                	unimp
 182:	0000                	unimp
 184:	7800                	ld	s0,48(s0)
 186:	0000                	unimp
 188:	0080                	addi	s0,sp,64
 18a:	0000                	unimp
 18c:	7c00                	ld	s0,56(s0)
 18e:	0002                	c.slli64	zero
 190:	0000                	unimp
 192:	0000                	unimp
 194:	0700                	addi	s0,sp,896
 196:	0001                	nop
 198:	0300                	addi	s0,sp,384
 19a:	0171                	addi	sp,sp,28
 19c:	0000                	unimp
 19e:	3a1b2803          	lw	a6,929(s6)
 1a2:	0000                	unimp
 1a4:	0b00                	addi	s0,sp,400
 1a6:	4d08                	lw	a0,24(a0)
 1a8:	0001                	nop
 1aa:	0300                	addi	s0,sp,384
 1ac:	0178                	addi	a4,sp,140
 1ae:	0000                	unimp
 1b0:	2e186303          	lwu	t1,737(a6)
 1b4:	0000                	unimp
 1b6:	0100                	addi	s0,sp,128
 1b8:	0601                	addi	a2,a2,0
 1ba:	0061                	c.nop	24
 1bc:	0000                	unimp
 1be:	0101                	addi	sp,sp,0
 1c0:	5f08                	lw	a0,56(a4)
 1c2:	0000                	unimp
 1c4:	0100                	addi	s0,sp,128
 1c6:	0502                	c.slli64	a0
 1c8:	011f 0000 0201      	.byte	0x1f, 0x01, 0x00, 0x00, 0x01, 0x02
 1ce:	00007f07          	.4byte	0x7f07
 1d2:	0300                	addi	s0,sp,384
 1d4:	015f 0000 4d04      	.byte	0x5f, 0x01, 0x00, 0x00, 0x04, 0x4d
 1da:	7418                	ld	a4,40(s0)
 1dc:	0000                	unimp
 1de:	0c00                	addi	s0,sp,528
 1e0:	0504                	addi	s1,sp,640
 1e2:	6e69                	lui	t3,0x1a
 1e4:	0074                	addi	a3,sp,12
 1e6:	00010a03          	lb	s4,0(sp)
 1ea:	0400                	addi	s0,sp,512
 1ec:	0087194f          	fnmadd.s	fs2,fa4,fs0,ft0,rtz
 1f0:	0000                	unimp
 1f2:	0401                	addi	s0,s0,0
 1f4:	00007207          	.4byte	0x7207
 1f8:	0100                	addi	s0,sp,128
 1fa:	0508                	addi	a0,sp,640
 1fc:	0134                	addi	a3,sp,136
 1fe:	0000                	unimp
 200:	0801                	addi	a6,a6,0
 202:	00006d07          	.4byte	0x6d07
 206:	0300                	addi	s0,sp,384
 208:	0161                	addi	sp,sp,24
 20a:	0000                	unimp
 20c:	2c05                	addiw	s8,s8,1 # 1d001 <_prog_start-0x7ffe2fff>
 20e:	00006813          	ori	a6,zero,0
 212:	0300                	addi	s0,sp,384
 214:	010c                	addi	a1,sp,128
 216:	0000                	unimp
 218:	3005                	.2byte	0x3005
 21a:	7b14                	ld	a3,48(a4)
 21c:	0000                	unimp
 21e:	0d00                	addi	s0,sp,656
 220:	00a8                	addi	a0,sp,72
 222:	0000                	unimp
 224:	2f04                	fld	fs1,24(a4)
 226:	0001                	nop
 228:	0100                	addi	s0,sp,128
 22a:	00d42213          	slti	tp,s0,13
 22e:	0000                	unimp
 230:	0309                	addi	t1,t1,2
 232:	0340                	addi	s0,sp,388
 234:	8000                	.2byte	0x8000
 236:	0000                	unimp
 238:	0000                	unimp
 23a:	b406                	fsd	ft1,40(sp)
 23c:	0000                	unimp
 23e:	0700                	addi	s0,sp,896
 240:	000000cf          	fnmadd.s	ft1,ft0,ft0,ft0,rne
 244:	5708                	lw	a0,40(a4)
 246:	0000                	unimp
 248:	1600                	addi	s0,sp,800
 24a:	0124                	addi	s1,sp,136
 24c:	8000                	.2byte	0x8000
 24e:	0000                	unimp
 250:	0000                	unimp
 252:	01d0                	addi	a2,sp,196
 254:	0000                	unimp
 256:	0000                	unimp
 258:	0000                	unimp
 25a:	9c01                	subw	s0,s0,s0
 25c:	01a2                	slli	gp,gp,0x8
 25e:	0000                	unimp
 260:	6605                	lui	a2,0x1
 262:	746d                	lui	s0,0xffffb
 264:	0200                	addi	s0,sp,256
 266:	1a16                	slli	s4,s4,0x25
 268:	01a2                	slli	gp,gp,0x8
 26a:	0000                	unimp
 26c:	7ef89103          	lh	sp,2031(a7) # 47ef <_prog_start-0x7fffb811>
 270:	020e                	slli	tp,tp,0x3
 272:	6c76                	ld	s8,344(sp)
 274:	0200                	addi	s0,sp,256
 276:	0a18                	addi	a4,sp,272
 278:	0040                	addi	s0,sp,4
 27a:	0000                	unimp
 27c:	7f809103          	lh	sp,2040(ra)
 280:	8004                	.2byte	0x8004
 282:	0001                	nop
 284:	0200                	addi	s0,sp,256
 286:	0719                	addi	a4,a4,6 # ffffffffffff9006 <uart+0xffffffff7fff8cc6>
 288:	000001b3          	add	gp,zero,zero
 28c:	7faf9103          	lh	sp,2042(t6)
 290:	6904                	ld	s1,16(a0)
 292:	0001                	nop
 294:	0200                	addi	s0,sp,256
 296:	1219                	addi	tp,tp,-26 # ffffffffffffffe6 <uart+0xffffffff7ffffca6>
 298:	000001b3          	add	gp,zero,zero
 29c:	7fae9103          	lh	sp,2042(t4)
 2a0:	4504                	lw	s1,8(a0)
 2a2:	0001                	nop
 2a4:	0200                	addi	s0,sp,256
 2a6:	1b19                	addi	s6,s6,-26
 2a8:	000001b3          	add	gp,zero,zero
 2ac:	7fad9103          	lh	sp,2042(s11)
 2b0:	6302                	ld	t1,0(sp)
 2b2:	0200                	addi	s0,sp,256
 2b4:	071a                	slli	a4,a4,0x6
 2b6:	000001a7          	.4byte	0x1a7
 2ba:	7f979103          	lh	sp,2041(a5)
 2be:	ba09                	j	fffffffffffffbd0 <uart+0xffffffff7ffff890>
 2c0:	0001                	nop
 2c2:	0080                	addi	s0,sp,64
 2c4:	0000                	unimp
 2c6:	ae00                	fsd	fs0,24(a2)
 2c8:	0000                	unimp
 2ca:	0000                	unimp
 2cc:	0000                	unimp
 2ce:	0200                	addi	s0,sp,256
 2d0:	006e                	c.slli	zero,0x1b
 2d2:	2a02                	fld	fs4,0(sp)
 2d4:	00009513          	slli	a0,ra,0x0
 2d8:	0300                	addi	s0,sp,384
 2da:	a091                	j	31e <_prog_start-0x7ffffce2>
 2dc:	027f                	.2byte	0x27f
 2de:	0069                	c.nop	26
 2e0:	2b02                	fld	fs6,0(sp)
 2e2:	8e0a                	mv	t3,sp
 2e4:	0000                	unimp
 2e6:	0300                	addi	s0,sp,384
 2e8:	9891                	andi	s1,s1,-28
 2ea:	097f                	.2byte	0x97f
 2ec:	020c                	addi	a1,sp,256
 2ee:	8000                	.2byte	0x8000
 2f0:	0000                	unimp
 2f2:	0000                	unimp
 2f4:	0048                	addi	a0,sp,4
 2f6:	0000                	unimp
 2f8:	0000                	unimp
 2fa:	0000                	unimp
 2fc:	6402                	ld	s0,0(sp)
 2fe:	0200                	addi	s0,sp,256
 300:	0b34                	addi	a3,sp,408
 302:	008e                	slli	ra,ra,0x3
 304:	0000                	unimp
 306:	7f889103          	lh	sp,2040(a7)
 30a:	0000                	unimp
 30c:	0600                	addi	s0,sp,768
 30e:	01ae                	slli	gp,gp,0xb
 310:	0000                	unimp
 312:	0101                	addi	sp,sp,0
 314:	6808                	ld	a0,16(s0)
 316:	0000                	unimp
 318:	0700                	addi	s0,sp,896
 31a:	000001a7          	.4byte	0x1a7
 31e:	0101                	addi	sp,sp,0
 320:	9702                	jalr	a4
 322:	0001                	nop
 324:	0800                	addi	s0,sp,16
 326:	0000018b          	.4byte	0x18b
 32a:	0000fa0f          	.4byte	0xfa0f
 32e:	0080                	addi	s0,sp,64
 330:	0000                	unimp
 332:	2a00                	fld	fs0,16(a2)
 334:	0000                	unimp
 336:	0000                	unimp
 338:	0000                	unimp
 33a:	0100                	addi	s0,sp,128
 33c:	e49c                	sd	a5,8(s1)
 33e:	0001                	nop
 340:	0500                	addi	s0,sp,640
 342:	0f020073          	.4byte	0xf020073
 346:	a218                	fsd	fa4,0(a2)
 348:	0001                	nop
 34a:	0200                	addi	s0,sp,256
 34c:	6891                	lui	a7,0x4
 34e:	0f00                	addi	s0,sp,912
 350:	018a                	slli	gp,gp,0x2
 352:	0000                	unimp
 354:	0802                	c.slli64	a6
 356:	b614                	fsd	fa3,40(a2)
 358:	0000                	unimp
 35a:	0080                	addi	s0,sp,64
 35c:	0000                	unimp
 35e:	4400                	lw	s0,8(s0)
 360:	0000                	unimp
 362:	0000                	unimp
 364:	0000                	unimp
 366:	0100                	addi	s0,sp,128
 368:	1d9c                	addi	a5,sp,752
 36a:	0002                	c.slli64	zero
 36c:	0500                	addi	s0,sp,640
 36e:	08020073          	.4byte	0x8020073
 372:	0001a227          	fsw	ft0,4(gp)
 376:	0200                	addi	s0,sp,256
 378:	5891                	li	a7,-28
 37a:	6302                	ld	t1,0(sp)
 37c:	0200                	addi	s0,sp,256
 37e:	070a                	slli	a4,a4,0x2
 380:	000001a7          	.4byte	0x1a7
 384:	9102                	jalr	sp
 386:	9110006f          	j	fffffffffff00c96 <uart+0xffffffff7ff00956>
 38a:	0001                	nop
 38c:	0100                	addi	s0,sp,128
 38e:	1415                	addi	s0,s0,-27 # ffffffffffffafe5 <uart+0xffffffff7fffaca5>
 390:	0078                	addi	a4,sp,12
 392:	8000                	.2byte	0x8000
 394:	0000                	unimp
 396:	0000                	unimp
 398:	003e                	c.slli	zero,0xf
 39a:	0000                	unimp
 39c:	0000                	unimp
 39e:	0000                	unimp
 3a0:	9c01                	subw	s0,s0,s0
 3a2:	6305                	lui	t1,0x1
 3a4:	0100                	addi	s0,sp,128
 3a6:	1f15                	addi	t5,t5,-27
 3a8:	000001a7          	.4byte	0x1a7
 3ac:	9102                	jalr	sp
 3ae:	025f 7874 0100      	.byte	0x5f, 0x02, 0x74, 0x78, 0x00, 0x01
 3b4:	00cf1517          	auipc	a0,0xcf1
 3b8:	0000                	unimp
 3ba:	9102                	jalr	sp
 3bc:	0268                	addi	a0,sp,268
 3be:	0072                	c.slli	zero,0x1c
 3c0:	1901                	addi	s2,s2,-32
 3c2:	9c0a                	add	s8,s8,sp
 3c4:	0000                	unimp
 3c6:	0200                	addi	s0,sp,256
 3c8:	6491                	lui	s1,0x4
	...

Disassembly of section .debug_abbrev:

0000000000000000 <.debug_abbrev>:
   0:	1101                	addi	sp,sp,-32
   2:	1000                	addi	s0,sp,32
   4:	12011117          	auipc	sp,0x12011
   8:	1b0e030f          	.4byte	0x1b0e030f
   c:	250e                	fld	fa0,192(sp)
   e:	130e                	slli	t1,t1,0x23
  10:	0005                	c.nop	1
  12:	0000                	unimp
  14:	2401                	sext.w	s0,s0
  16:	0b00                	addi	s0,sp,400
  18:	030b3e0b          	.4byte	0x30b3e0b
  1c:	000e                	c.slli	zero,0x3
  1e:	0200                	addi	s0,sp,256
  20:	210b000f          	.4byte	0x210b000f
  24:	4908                	lw	a0,16(a0)
  26:	03000013          	li	zero,48
  2a:	0034                	addi	a3,sp,8
  2c:	0b3a0e03          	lb	t3,179(s4)
  30:	0b390b3b          	.4byte	0xb390b3b
  34:	1349                	addi	t1,t1,-14 # ff2 <_prog_start-0x7ffff00e>
  36:	1802                	slli	a6,a6,0x20
  38:	0000                	unimp
  3a:	1604                	addi	s1,sp,800
  3c:	0300                	addi	s0,sp,384
  3e:	3a0e                	fld	fs4,224(sp)
  40:	390b3b0b          	.4byte	0x390b3b0b
  44:	0013490b          	.4byte	0x13490b
  48:	0500                	addi	s0,sp,640
  4a:	0026                	c.slli	zero,0x9
  4c:	1349                	addi	t1,t1,-14
  4e:	0000                	unimp
  50:	1106                	slli	sp,sp,0x21
  52:	2501                	sext.w	a0,a0
  54:	130e                	slli	t1,t1,0x23
  56:	1b1f030b          	.4byte	0x1b1f030b
  5a:	111f 1201 1007      	.byte	0x1f, 0x11, 0x01, 0x12, 0x07, 0x10
  60:	07000017          	auipc	zero,0x7000
  64:	0024                	addi	s1,sp,8
  66:	0b3e0b0b          	.4byte	0xb3e0b0b
  6a:	00000803          	lb	a6,0(zero) # 0 <_prog_start-0x80000000>
  6e:	3508                	fld	fa0,40(a0)
  70:	4900                	lw	s0,16(a0)
  72:	09000013          	li	zero,144
  76:	012e                	slli	sp,sp,0xb
  78:	0e03193f 0b3b0b3a 	.8byte	0xb3b0b3a0e03193f
  80:	0b39                	addi	s6,s6,14
  82:	193c1927          	.4byte	0x193c1927
  86:	1301                	addi	t1,t1,-32
  88:	0000                	unimp
  8a:	050a                	slli	a0,a0,0x2
  8c:	4900                	lw	s0,16(a0)
  8e:	0b000013          	li	zero,176
  92:	0018                	.2byte	0x18
  94:	0000                	unimp
  96:	2e0c                	fld	fa1,24(a2)
  98:	3f01                	addiw	t5,t5,-32
  9a:	0319                	addi	t1,t1,6
  9c:	3a0e                	fld	fs4,224(sp)
  9e:	390b3b0b          	.4byte	0x390b3b0b
  a2:	4919270b          	.4byte	0x4919270b
  a6:	12011113          	.4byte	0x12011113
  aa:	7c184007          	.4byte	0x7c184007
  ae:	0119                	addi	sp,sp,6 # 1201100a <_prog_start-0x6dfeeff6>
  b0:	0d000013          	li	zero,208
  b4:	0005                	c.nop	1
  b6:	0b3a0e03          	lb	t3,179(s4)
  ba:	0b390b3b          	.4byte	0xb390b3b
  be:	1349                	addi	t1,t1,-14
  c0:	1802                	slli	a6,a6,0x20
  c2:	0000                	unimp
  c4:	050e                	slli	a0,a0,0x3
  c6:	0300                	addi	s0,sp,384
  c8:	3a08                	fld	fa0,48(a2)
  ca:	390b3b0b          	.4byte	0x390b3b0b
  ce:	0213490b          	.4byte	0x213490b
  d2:	0018                	.2byte	0x18
  d4:	0f00                	addi	s0,sp,912
  d6:	0111010b          	.4byte	0x111010b
  da:	0712                	slli	a4,a4,0x4
  dc:	0000                	unimp
  de:	0100                	addi	s0,sp,128
  e0:	0024                	addi	s1,sp,8
  e2:	0b3e0b0b          	.4byte	0xb3e0b0b
  e6:	00000e03          	lb	t3,0(zero) # 0 <_prog_start-0x80000000>
  ea:	3402                	fld	fs0,32(sp)
  ec:	0300                	addi	s0,sp,384
  ee:	3a08                	fld	fa0,48(a2)
  f0:	390b3b0b          	.4byte	0x390b3b0b
  f4:	0213490b          	.4byte	0x213490b
  f8:	0018                	.2byte	0x18
  fa:	0300                	addi	s0,sp,384
  fc:	0016                	c.slli	zero,0x5
  fe:	0b3a0e03          	lb	t3,179(s4)
 102:	0b390b3b          	.4byte	0xb390b3b
 106:	1349                	addi	t1,t1,-14
 108:	0000                	unimp
 10a:	3404                	fld	fs1,40(s0)
 10c:	0300                	addi	s0,sp,384
 10e:	3a0e                	fld	fs4,224(sp)
 110:	390b3b0b          	.4byte	0x390b3b0b
 114:	0213490b          	.4byte	0x213490b
 118:	0018                	.2byte	0x18
 11a:	0500                	addi	s0,sp,640
 11c:	0005                	c.nop	1
 11e:	0b3a0803          	lb	a6,179(s4)
 122:	0b390b3b          	.4byte	0xb390b3b
 126:	1349                	addi	t1,t1,-14
 128:	1802                	slli	a6,a6,0x20
 12a:	0000                	unimp
 12c:	0f06                	slli	t5,t5,0x1
 12e:	0b00                	addi	s0,sp,400
 130:	0821                	addi	a6,a6,8
 132:	1349                	addi	t1,t1,-14
 134:	0000                	unimp
 136:	49002607          	flw	fa2,1168(zero) # 490 <_prog_start-0x7ffffb70>
 13a:	08000013          	li	zero,128
 13e:	012e                	slli	sp,sp,0xb
 140:	0e03193f 3b02213a 	.8byte	0x3b02213a0e03193f
 148:	0621390b          	.4byte	0x621390b
 14c:	01111927          	.4byte	0x1111927
 150:	0712                	slli	a4,a4,0x4
 152:	1840                	addi	s0,sp,52
 154:	197c                	addi	a5,sp,188
 156:	1301                	addi	t1,t1,-32
 158:	0000                	unimp
 15a:	0b09                	addi	s6,s6,2
 15c:	1101                	addi	sp,sp,-32
 15e:	1201                	addi	tp,tp,-32 # ffffffffffffffe0 <uart+0xffffffff7ffffca0>
 160:	0a000007          	.4byte	0xa000007
 164:	0111                	addi	sp,sp,4
 166:	0e25                	addi	t3,t3,9 # 1a009 <_prog_start-0x7ffe5ff7>
 168:	1f030b13          	addi	s6,t1,496
 16c:	01111f1b          	slliw	t5,sp,0x11
 170:	0712                	slli	a4,a4,0x4
 172:	1710                	addi	a2,sp,928
 174:	0000                	unimp
 176:	0b000f0b          	.4byte	0xb000f0b
 17a:	000e030b          	.4byte	0xe030b
 17e:	0c00                	addi	s0,sp,528
 180:	0024                	addi	s1,sp,8
 182:	0b3e0b0b          	.4byte	0xb3e0b0b
 186:	00000803          	lb	a6,0(zero) # 0 <_prog_start-0x80000000>
 18a:	350d                	addiw	a0,a0,-29 # cf1397 <_prog_start-0x7f30ec69>
 18c:	4900                	lw	s0,16(a0)
 18e:	0e000013          	li	zero,224
 192:	0018                	.2byte	0x18
 194:	0000                	unimp
 196:	03012e0f          	.4byte	0x3012e0f
 19a:	3a0e                	fld	fs4,224(sp)
 19c:	390b3b0b          	.4byte	0x390b3b0b
 1a0:	1119270b          	.4byte	0x1119270b
 1a4:	1201                	addi	tp,tp,-32 # ffffffffffffffe0 <uart+0xffffffff7ffffca0>
 1a6:	7c184007          	.4byte	0x7c184007
 1aa:	0119                	addi	sp,sp,6
 1ac:	10000013          	li	zero,256
 1b0:	012e                	slli	sp,sp,0xb
 1b2:	0b3a0e03          	lb	t3,179(s4)
 1b6:	0b390b3b          	.4byte	0xb390b3b
 1ba:	01111927          	.4byte	0x1111927
 1be:	0712                	slli	a4,a4,0x4
 1c0:	1840                	addi	s0,sp,52
 1c2:	197a                	slli	s2,s2,0x3e
 1c4:	0000                	unimp
	...

Disassembly of section .debug_aranges:

0000000000000000 <.debug_aranges>:
   0:	002c                	addi	a1,sp,8
   2:	0000                	unimp
   4:	0002                	c.slli64	zero
   6:	0000                	unimp
   8:	0000                	unimp
   a:	0008                	.2byte	0x8
   c:	0000                	unimp
   e:	0000                	unimp
  10:	0000                	unimp
  12:	8000                	.2byte	0x8000
  14:	0000                	unimp
  16:	0000                	unimp
  18:	0028                	addi	a0,sp,8
	...
  2e:	0000                	unimp
  30:	002c                	addi	a1,sp,8
  32:	0000                	unimp
  34:	0002                	c.slli64	zero
  36:	0028                	addi	a0,sp,8
  38:	0000                	unimp
  3a:	0008                	.2byte	0x8
  3c:	0000                	unimp
  3e:	0000                	unimp
  40:	0028                	addi	a0,sp,8
  42:	8000                	.2byte	0x8000
  44:	0000                	unimp
  46:	0000                	unimp
  48:	0050                	addi	a2,sp,4
	...
  5e:	0000                	unimp
  60:	002c                	addi	a1,sp,8
  62:	0000                	unimp
  64:	0002                	c.slli64	zero
  66:	0000016b          	.4byte	0x16b
  6a:	0008                	.2byte	0x8
  6c:	0000                	unimp
  6e:	0000                	unimp
  70:	0078                	addi	a4,sp,12
  72:	8000                	.2byte	0x8000
  74:	0000                	unimp
  76:	0000                	unimp
  78:	027c                	addi	a5,sp,268
	...

Disassembly of section .debug_str:

0000000000000000 <.debug_str>:
   0:	30747263          	bgeu	s0,t2,304 <_prog_start-0x7ffffcfc>
   4:	532e                	lw	t1,232(sp)
   6:	2f00                	fld	fs0,24(a4)
   8:	6f68                	ld	a0,216(a4)
   a:	656d                	lui	a0,0x1b
   c:	6e69622f          	.4byte	0x6e69622f
  10:	6b68                	ld	a0,208(a4)
  12:	6569                	lui	a0,0x1a
  14:	6475                	lui	s0,0x1d
  16:	6f572f6f          	jal	t5,72f0a <_prog_start-0x7ff8d0f6>
  1a:	6b72                	ld	s6,280(sp)
  1c:	63617073          	csrci	0x636,2
  20:	2f65                	addiw	t5,t5,25
  22:	6d74                	ld	a3,216(a0)
  24:	2f70                	fld	fa2,216(a4)
  26:	6d74                	ld	a3,216(a0)
  28:	2f70                	fld	fa2,216(a4)
  2a:	614d                	addi	sp,sp,176
  2c:	796e                	ld	s2,248(sp)
  2e:	65726f43          	.4byte	0x65726f43
  32:	6172662f          	.4byte	0x6172662f
  36:	656d                	lui	a0,0x1b
  38:	6b726f77          	.4byte	0x6b726f77
  3c:	2f77732f          	.4byte	0x2f77732f
  40:	6568                	ld	a0,200(a0)
  42:	6c6c                	ld	a1,216(s0)
  44:	726f576f          	jal	a4,f576a <_prog_start-0x7ff0a896>
  48:	646c                	ld	a1,200(s0)
  4a:	4700                	lw	s0,8(a4)
  4c:	554e                	lw	a0,240(sp)
  4e:	4120                	lw	s0,64(a0)
  50:	2e322053          	.4byte	0x2e322053
  54:	6b003933          	.4byte	0x6b003933
  58:	7270                	ld	a2,224(a2)
  5a:	6e69                	lui	t3,0x1a
  5c:	6674                	ld	a3,200(a2)
  5e:	7500                	ld	s0,40(a0)
  60:	736e                	ld	t1,248(sp)
  62:	6769                	lui	a4,0x1a
  64:	656e                	ld	a0,216(sp)
  66:	2064                	fld	fs1,192(s0)
  68:	72616863          	bltu	sp,t1,798 <_prog_start-0x7ffff868>
  6c:	6c00                	ld	s0,24(s0)
  6e:	20676e6f          	jal	t3,76274 <_prog_start-0x7ff89d8c>
  72:	6e75                	lui	t3,0x1d
  74:	6e676973          	csrrsi	s2,0x6e6,14
  78:	6465                	lui	s0,0x19
  7a:	6920                	ld	s0,80(a0)
  7c:	746e                	ld	s0,248(sp)
  7e:	7300                	ld	s0,32(a4)
  80:	6f68                	ld	a0,216(a4)
  82:	7472                	ld	s0,312(sp)
  84:	7520                	ld	s0,104(a0)
  86:	736e                	ld	t1,248(sp)
  88:	6769                	lui	a4,0x1a
  8a:	656e                	ld	a0,216(sp)
  8c:	2064                	fld	fs1,192(s0)
  8e:	6e69                	lui	t3,0x1a
  90:	0074                	addi	a3,sp,12
  92:	20554e47          	fmsub.s	ft8,fa0,ft5,ft4,rmm
  96:	20313143          	fmadd.s	ft2,ft2,ft3,ft4,rup
  9a:	3231                	addiw	tp,tp,-20 # ffffffffffffffec <uart+0xffffffff7ffffcac>
  9c:	322e                	fld	ft4,232(sp)
  9e:	302e                	fld	ft0,232(sp)
  a0:	2d20                	fld	fs0,88(a0)
  a2:	636d                	lui	t1,0x1b
  a4:	6f6d                	lui	t5,0x1b
  a6:	6564                	ld	s1,200(a0)
  a8:	3d6c                	fld	fa1,248(a0)
  aa:	656d                	lui	a0,0x1b
  ac:	6164                	ld	s1,192(a0)
  ae:	796e                	ld	s2,248(sp)
  b0:	2d20                	fld	fs0,88(a0)
  b2:	616d                	addi	sp,sp,240
  b4:	6962                	ld	s2,24(sp)
  b6:	6c3d                	lui	s8,0xf
  b8:	3670                	fld	fa2,232(a2)
  ba:	6434                	ld	a3,72(s0)
  bc:	2d20                	fld	fs0,88(a0)
  be:	746d                	lui	s0,0xffffb
  c0:	6e75                	lui	t3,0x1d
  c2:	3d65                	addiw	s10,s10,-7
  c4:	6f72                	ld	t5,280(sp)
  c6:	74656b63          	bltu	a0,t1,81c <_prog_start-0x7ffff7e4>
  ca:	2d20                	fld	fs0,88(a0)
  cc:	696d                	lui	s2,0x1b
  ce:	732d6173          	csrrsi	sp,mhpmevent18h,26
  d2:	6570                	ld	a2,200(a0)
  d4:	2e323d63          	.4byte	0x2e323d63
  d8:	2032                	fld	ft0,264(sp)
  da:	6d2d                	lui	s10,0xb
  dc:	7261                	lui	tp,0xffff8
  de:	723d6863          	bltu	s10,gp,80e <_prog_start-0x7ffff7f2>
  e2:	3676                	fld	fa2,376(sp)
  e4:	6934                	ld	a3,80(a0)
  e6:	616d                	addi	sp,sp,240
  e8:	6466                	ld	s0,88(sp)
  ea:	672d2063          	.4byte	0x672d2063
  ee:	2d20                	fld	fs0,88(a0)
  f0:	2d20304f          	.4byte	0x2d20304f
  f4:	3d647473          	csrrci	s0,0x3d6,8
  f8:	31756e67          	.4byte	0x31756e67
  fc:	2031                	.2byte	0x2031
  fe:	662d                	lui	a2,0xb
 100:	6f6e                	ld	t5,216(sp)
 102:	632d                	lui	t1,0xb
 104:	6f6d6d6f          	jal	s10,d67fa <_prog_start-0x7ff29806>
 108:	006e                	c.slli	zero,0x1b
 10a:	5f5f 6975 746e      	.byte	0x5f, 0x5f, 0x75, 0x69, 0x6e, 0x74
 110:	745f3233          	.4byte	0x745f3233
 114:	6d00                	ld	s0,24(a0)
 116:	6961                	lui	s2,0x18
 118:	006e                	c.slli	zero,0x1b
 11a:	7261                	lui	tp,0xffff8
 11c:	73006367          	.4byte	0x73006367
 120:	6f68                	ld	a0,216(a4)
 122:	7472                	ld	s0,312(sp)
 124:	6920                	ld	s0,80(a0)
 126:	746e                	ld	s0,248(sp)
 128:	5f00                	lw	s0,56(a4)
 12a:	745f 706d 7500      	.byte	0x5f, 0x74, 0x6d, 0x70, 0x00, 0x75
 130:	7261                	lui	tp,0xffff8
 132:	0074                	addi	a3,sp,12
 134:	6f6c                	ld	a1,216(a4)
 136:	676e                	ld	a4,216(sp)
 138:	6920                	ld	s0,80(a0)
 13a:	746e                	ld	s0,248(sp)
 13c:	6d00                	ld	s0,24(a0)
 13e:	6168                	ld	a0,192(a0)
 140:	7472                	ld	s0,312(sp)
 142:	6469                	lui	s0,0x1a
 144:	6900                	ld	s0,16(a0)
 146:	68635f73          	csrrwi	t5,0x686,6
 14a:	7261                	lui	tp,0xffff8
 14c:	5f00                	lw	s0,56(a4)
 14e:	625f 6975 746c      	.byte	0x5f, 0x62, 0x75, 0x69, 0x6c, 0x74
 154:	6e69                	lui	t3,0x1a
 156:	765f 5f61 696c      	.byte	0x5f, 0x76, 0x61, 0x5f, 0x6c, 0x69
 15c:	5f007473          	csrrci	s0,0x5f0,0
 160:	695f 746e 3233      	.byte	0x5f, 0x69, 0x6e, 0x74, 0x33, 0x32
 166:	745f 6900 5f73      	.byte	0x5f, 0x74, 0x00, 0x69, 0x73, 0x5f
 16c:	6f6c                	ld	a1,216(a4)
 16e:	676e                	ld	a4,216(sp)
 170:	5f00                	lw	s0,56(a4)
 172:	675f 756e 5f63      	.byte	0x5f, 0x67, 0x6e, 0x75, 0x63, 0x5f
 178:	6176                	ld	sp,344(sp)
 17a:	6c5f 7369 0074      	.byte	0x5f, 0x6c, 0x69, 0x73, 0x74, 0x00
 180:	7369                	lui	t1,0xffffa
 182:	665f 726f 616d      	.byte	0x5f, 0x66, 0x6f, 0x72, 0x6d, 0x61
 188:	0074                	addi	a3,sp,12
 18a:	6b5f 7570 7374      	.byte	0x5f, 0x6b, 0x70, 0x75, 0x74, 0x73
 190:	6b00                	ld	s0,16(a4)
 192:	7570                	ld	a2,232(a0)
 194:	6374                	ld	a3,192(a4)
 196:	5f00                	lw	s0,56(a4)
 198:	6f42                	ld	t5,16(sp)
 19a:	6f 6c 00            	Address 0x000000000000019a is out of bounds.


Disassembly of section .debug_frame:

0000000000000000 <.debug_frame>:
   0:	000c                	.2byte	0xc
   2:	0000                	unimp
   4:	ffff                	.2byte	0xffff
   6:	ffff                	.2byte	0xffff
   8:	7c010003          	lb	zero,1984(sp)
   c:	0d01                	addi	s10,s10,0 # b000 <_prog_start-0x7fff5000>
   e:	0002                	c.slli64	zero
  10:	002c                	addi	a1,sp,8
  12:	0000                	unimp
  14:	0000                	unimp
  16:	0000                	unimp
  18:	0028                	addi	a0,sp,8
  1a:	8000                	.2byte	0x8000
  1c:	0000                	unimp
  1e:	0000                	unimp
  20:	0050                	addi	a2,sp,4
  22:	0000                	unimp
  24:	0000                	unimp
  26:	0000                	unimp
  28:	0e42                	slli	t3,t3,0x10
  2a:	4430                	lw	a2,72(s0)
  2c:	0281                	addi	t0,t0,0
  2e:	0488                	addi	a0,sp,576
  30:	0c42                	slli	s8,s8,0x10
  32:	0008                	.2byte	0x8
  34:	4202                	lw	tp,0(sp)
  36:	42c1                	li	t0,16
  38:	0cc8                	addi	a0,sp,596
  3a:	3002                	fld	ft0,32(sp)
  3c:	0e42                	slli	t3,t3,0x10
  3e:	0000                	unimp
  40:	000c                	.2byte	0xc
  42:	0000                	unimp
  44:	ffff                	.2byte	0xffff
  46:	ffff                	.2byte	0xffff
  48:	7c010003          	lb	zero,1984(sp)
  4c:	0d01                	addi	s10,s10,0
  4e:	0002                	c.slli64	zero
  50:	002c                	addi	a1,sp,8
  52:	0000                	unimp
  54:	0040                	addi	s0,sp,4
  56:	0000                	unimp
  58:	0078                	addi	a4,sp,12
  5a:	8000                	.2byte	0x8000
  5c:	0000                	unimp
  5e:	0000                	unimp
  60:	003e                	c.slli	zero,0xf
  62:	0000                	unimp
  64:	0000                	unimp
  66:	0000                	unimp
  68:	0e42                	slli	t3,t3,0x10
  6a:	4230                	lw	a2,64(a2)
  6c:	0288                	addi	a0,sp,320
  6e:	0c42                	slli	s8,s8,0x10
  70:	0008                	.2byte	0x8
  72:	c874                	sw	a3,84(s0)
  74:	020c                	addi	a1,sp,256
  76:	4230                	lw	a2,64(a2)
  78:	000e                	c.slli	zero,0x3
  7a:	0000                	unimp
  7c:	0000                	unimp
  7e:	0000                	unimp
  80:	002c                	addi	a1,sp,8
  82:	0000                	unimp
  84:	0040                	addi	s0,sp,4
  86:	0000                	unimp
  88:	00b6                	slli	ra,ra,0xd
  8a:	8000                	.2byte	0x8000
  8c:	0000                	unimp
  8e:	0000                	unimp
  90:	0044                	addi	s1,sp,4
  92:	0000                	unimp
  94:	0000                	unimp
  96:	0000                	unimp
  98:	0e42                	slli	t3,t3,0x10
  9a:	4430                	lw	a2,72(s0)
  9c:	0281                	addi	t0,t0,0
  9e:	0488                	addi	a0,sp,576
  a0:	0c42                	slli	s8,s8,0x10
  a2:	0008                	.2byte	0x8
  a4:	c176                	sw	t4,128(sp)
  a6:	c842                	sw	a6,16(sp)
  a8:	020c                	addi	a1,sp,256
  aa:	4230                	lw	a2,64(a2)
  ac:	000e                	c.slli	zero,0x3
  ae:	0000                	unimp
  b0:	002c                	addi	a1,sp,8
  b2:	0000                	unimp
  b4:	0040                	addi	s0,sp,4
  b6:	0000                	unimp
  b8:	00fa                	slli	ra,ra,0x1e
  ba:	8000                	.2byte	0x8000
  bc:	0000                	unimp
  be:	0000                	unimp
  c0:	002a                	c.slli	zero,0xa
  c2:	0000                	unimp
  c4:	0000                	unimp
  c6:	0000                	unimp
  c8:	0e42                	slli	t3,t3,0x10
  ca:	4420                	lw	s0,72(s0)
  cc:	0281                	addi	t0,t0,0
  ce:	0488                	addi	a0,sp,576
  d0:	0c42                	slli	s8,s8,0x10
  d2:	0008                	.2byte	0x8
  d4:	c15c                	sw	a5,4(a0)
  d6:	c842                	sw	a6,16(sp)
  d8:	020c                	addi	a1,sp,256
  da:	4220                	lw	s0,64(a2)
  dc:	000e                	c.slli	zero,0x3
  de:	0000                	unimp
  e0:	0034                	addi	a3,sp,8
  e2:	0000                	unimp
  e4:	0040                	addi	s0,sp,4
  e6:	0000                	unimp
  e8:	0124                	addi	s1,sp,136
  ea:	8000                	.2byte	0x8000
  ec:	0000                	unimp
  ee:	0000                	unimp
  f0:	01d0                	addi	a2,sp,196
  f2:	0000                	unimp
  f4:	0000                	unimp
  f6:	0000                	unimp
  f8:	0e42                	slli	t3,t3,0x10
  fa:	0190                	addi	a2,sp,192
  fc:	8144                	.2byte	0x8144
  fe:	8812                	mv	a6,tp
 100:	4214                	lw	a3,0(a2)
 102:	080c                	addi	a1,sp,16
 104:	0340                	addi	s0,sp,388
 106:	01c2                	slli	gp,gp,0x10
 108:	42c1                	li	t0,16
 10a:	0cc8                	addi	a0,sp,596
 10c:	9002                	ebreak
 10e:	4201                	li	tp,0
 110:	000e                	c.slli	zero,0x3
 112:	0000                	unimp
 114:	0000                	unimp
	...
